Archive member included because of file (symbol)

../../wlan_bsp_cpu_high/mb_high/lib\libxil.a(xil_printf.o)
                              ./wlan_mac_high_framework/wlan_exp_common.o (xil_printf)
../../wlan_bsp_cpu_high/mb_high/lib\libxil.a(_exception_handler.o)
                              c:/xilinx/14.4/ise_ds/edk/gnu/microblaze/nt64/bin/../lib/gcc/microblaze-xilinx-elf/4.6.2/../../../../microblaze-xilinx-elf/lib/bs/m/le/crt0.o (_exception_handler)
../../wlan_bsp_cpu_high/mb_high/lib\libxil.a(_program_clean.o)
                              c:/xilinx/14.4/ise_ds/edk/gnu/microblaze/nt64/bin/../lib/gcc/microblaze-xilinx-elf/4.6.2/../../../../microblaze-xilinx-elf/lib/bs/m/le/crtinit.o (_program_clean)
../../wlan_bsp_cpu_high/mb_high/lib\libxil.a(_program_init.o)
                              c:/xilinx/14.4/ise_ds/edk/gnu/microblaze/nt64/bin/../lib/gcc/microblaze-xilinx-elf/4.6.2/../../../../microblaze-xilinx-elf/lib/bs/m/le/crtinit.o (_program_init)
../../wlan_bsp_cpu_high/mb_high/lib\libxil.a(hw_exception_handler.o)
                              c:/xilinx/14.4/ise_ds/edk/gnu/microblaze/nt64/bin/../lib/gcc/microblaze-xilinx-elf/4.6.2/../../../../microblaze-xilinx-elf/lib/bs/m/le/crt0.o (_hw_exception_handler)
../../wlan_bsp_cpu_high/mb_high/lib\libxil.a(microblaze_interrupt_handler.o)
                              c:/xilinx/14.4/ise_ds/edk/gnu/microblaze/nt64/bin/../lib/gcc/microblaze-xilinx-elf/4.6.2/../../../../microblaze-xilinx-elf/lib/bs/m/le/crt0.o (_interrupt_handler)
../../wlan_bsp_cpu_high/mb_high/lib\libxil.a(microblaze_interrupts_g.o)
                              ../../wlan_bsp_cpu_high/mb_high/lib\libxil.a(microblaze_interrupt_handler.o) (MB_InterruptVectorTable)
../../wlan_bsp_cpu_high/mb_high/lib\libxil.a(outbyte.o)
                              ../../wlan_bsp_cpu_high/mb_high/lib\libxil.a(xil_printf.o) (outbyte)
../../wlan_bsp_cpu_high/mb_high/lib\libxil.a(xil_exception.o)
                              ./wlan_mac_high_framework/wlan_mac_high.o (Xil_ExceptionInit)
../../wlan_bsp_cpu_high/mb_high/lib\libxil.a(xil_io.o)
                              ./wlan_mac_high_framework/wlan_exp_node.o (Xil_EndianSwap16)
../../wlan_bsp_cpu_high/mb_high/lib\libxil.a(WARP_ip_udp_init.o)
                              ./wlan_mac_high_framework/wlan_exp_transport.o (warp_ip_udp_init)
../../wlan_bsp_cpu_high/mb_high/lib\libxil.a(WARP_ip_udp_eth.o)
                              ./wlan_mac_high_framework/wlan_exp_transport.o (eth_set_interrupt_enable_callback)
../../wlan_bsp_cpu_high/mb_high/lib\libxil.a(WARP_ip_udp_ip_udp.o)
                              ../../wlan_bsp_cpu_high/mb_high/lib\libxil.a(WARP_ip_udp_init.o) (ipv4_init)
../../wlan_bsp_cpu_high/mb_high/lib\libxil.a(WARP_ip_udp_socket.o)
                              ./wlan_mac_high_framework/wlan_exp_transport.o (socket_socket)
../../wlan_bsp_cpu_high/mb_high/lib\libxil.a(xaxicdma.o)
                              ./wlan_mac_high_framework/wlan_mac_high.o (XAxiCdma_CfgInitialize)
../../wlan_bsp_cpu_high/mb_high/lib\libxil.a(xaxicdma_bdring.o)
                              ../../wlan_bsp_cpu_high/mb_high/lib\libxil.a(xaxicdma.o) (XAxiCdma_BdRingGetCurrBd)
../../wlan_bsp_cpu_high/mb_high/lib\libxil.a(xaxicdma_intr.o)
                              ../../wlan_bsp_cpu_high/mb_high/lib\libxil.a(xaxicdma.o) (XAxiCdma_IntrGetEnabled)
../../wlan_bsp_cpu_high/mb_high/lib\libxil.a(xaxicdma_sinit.o)
                              ./wlan_mac_high_framework/wlan_mac_high.o (XAxiCdma_LookupConfig)
../../wlan_bsp_cpu_high/mb_high/lib\libxil.a(xaxidma.o)
                              ../../wlan_bsp_cpu_high/mb_high/lib\libxil.a(WARP_ip_udp_eth.o) (XAxiDma_Reset)
../../wlan_bsp_cpu_high/mb_high/lib\libxil.a(xaxidma_bd.o)
                              ./wlan_mac_high_framework/wlan_mac_eth_util.o (XAxiDma_BdSetLength)
../../wlan_bsp_cpu_high/mb_high/lib\libxil.a(xaxidma_bdring.o)
                              ./wlan_mac_high_framework/wlan_mac_eth_util.o (XAxiDma_BdRingCreate)
../../wlan_bsp_cpu_high/mb_high/lib\libxil.a(xaxidma_sinit.o)
                              ./wlan_mac_high_framework/wlan_mac_eth_util.o (XAxiDma_LookupConfig)
../../wlan_bsp_cpu_high/mb_high/lib\libxil.a(xaxiethernet.o)
                              ./wlan_mac_high_framework/wlan_mac_eth_util.o (XAxiEthernet_Start)
../../wlan_bsp_cpu_high/mb_high/lib\libxil.a(xaxiethernet_sinit.o)
                              ./wlan_mac_high_framework/wlan_mac_eth_util.o (XAxiEthernet_LookupConfig)
../../wlan_bsp_cpu_high/mb_high/lib\libxil.a(xintc.o)
                              ./wlan_mac_high_framework/wlan_mac_high.o (XIntc_Initialize)
../../wlan_bsp_cpu_high/mb_high/lib\libxil.a(xintc_g.o)
                              ../../wlan_bsp_cpu_high/mb_high/lib\libxil.a(xintc.o) (XIntc_ConfigTable)
../../wlan_bsp_cpu_high/mb_high/lib\libxil.a(xintc_l.o)
                              ./wlan_mac_high_framework/wlan_mac_high.o (XIntc_DeviceInterruptHandler)
../../wlan_bsp_cpu_high/mb_high/lib\libxil.a(xgpio.o)
                              ./wlan_mac_high_framework/wlan_mac_high.o (XGpio_SetDataDirection)
../../wlan_bsp_cpu_high/mb_high/lib\libxil.a(xgpio_intr.o)
                              ./wlan_mac_high_framework/wlan_mac_high.o (XGpio_InterruptGlobalEnable)
../../wlan_bsp_cpu_high/mb_high/lib\libxil.a(xgpio_sinit.o)
                              ./wlan_mac_high_framework/wlan_mac_high.o (XGpio_Initialize)
../../wlan_bsp_cpu_high/mb_high/lib\libxil.a(xtmrctr.o)
                              ./wlan_mac_high_framework/wlan_mac_schedule.o (XTmrCtr_Initialize)
../../wlan_bsp_cpu_high/mb_high/lib\libxil.a(xtmrctr_g.o)
                              ../../wlan_bsp_cpu_high/mb_high/lib\libxil.a(xtmrctr.o) (XTmrCtr_ConfigTable)
../../wlan_bsp_cpu_high/mb_high/lib\libxil.a(xtmrctr_intr.o)
                              ./wlan_mac_high_framework/wlan_mac_schedule.o (XTmrCtr_SetHandler)
../../wlan_bsp_cpu_high/mb_high/lib\libxil.a(xtmrctr_l.o)
                              ./wlan_mac_high_framework/wlan_mac_schedule.o (XTmrCtr_Offsets)
../../wlan_bsp_cpu_high/mb_high/lib\libxil.a(xtmrctr_options.o)
                              ./wlan_mac_high_framework/wlan_mac_schedule.o (XTmrCtr_SetOptions)
../../wlan_bsp_cpu_high/mb_high/lib\libxil.a(xuartlite.o)
                              ./wlan_mac_high_framework/wlan_mac_high.o (XUartLite_Recv)
../../wlan_bsp_cpu_high/mb_high/lib\libxil.a(xuartlite_intr.o)
                              ./wlan_mac_high_framework/wlan_mac_high.o (XUartLite_SetRecvHandler)
../../wlan_bsp_cpu_high/mb_high/lib\libxil.a(xuartlite_l.o)
                              ../../wlan_bsp_cpu_high/mb_high/lib\libxil.a(outbyte.o) (XUartLite_SendByte)
../../wlan_bsp_cpu_high/mb_high/lib\libxil.a(xuartlite_sinit.o)
                              ./wlan_mac_high_framework/wlan_mac_high.o (XUartLite_Initialize)
../../wlan_bsp_cpu_high/mb_high/lib\libxil.a(xuartlite_stats.o)
                              ../../wlan_bsp_cpu_high/mb_high/lib\libxil.a(xuartlite.o) (XUartLite_ClearStats)
../../wlan_bsp_cpu_high/mb_high/lib\libxil.a(xmbox.o)
                              ./wlan_mac_common/wlan_mac_mailbox_util.o (XMbox_CfgInitialize)
../../wlan_bsp_cpu_high/mb_high/lib\libxil.a(xmbox_sinit.o)
                              ./wlan_mac_common/wlan_mac_mailbox_util.o (XMbox_LookupConfig)
../../wlan_bsp_cpu_high/mb_high/lib\libxil.a(xmutex.o)
                              ./wlan_mac_common/wlan_mac_pkt_buf_util.o (XMutex_CfgInitialize)
../../wlan_bsp_cpu_high/mb_high/lib\libxil.a(xmutex_sinit.o)
                              ./wlan_mac_common/wlan_mac_pkt_buf_util.o (XMutex_LookupConfig)
../../wlan_bsp_cpu_high/mb_high/lib\libxil.a(w3_iic_eeprom.o)
                              ./wlan_mac_common/wlan_mac_common.o (w3_eeprom_read_serial_num)
../../wlan_bsp_cpu_high/mb_high/lib\libxil.a(print.o)
                              ../../wlan_bsp_cpu_high/mb_high/lib\libxil.a(w3_iic_eeprom.o) (print)
../../wlan_bsp_cpu_high/mb_high/lib\libxil.a(xbasic_types.o)
                              ../../wlan_bsp_cpu_high/mb_high/lib\libxil.a(hw_exception_handler.o) (XNullHandler)
../../wlan_bsp_cpu_high/mb_high/lib\libxil.a(microblaze_disable_exceptions.o)
                              ../../wlan_bsp_cpu_high/mb_high/lib\libxil.a(xil_exception.o) (microblaze_disable_exceptions)
../../wlan_bsp_cpu_high/mb_high/lib\libxil.a(microblaze_disable_interrupts.o)
                              ../../wlan_bsp_cpu_high/mb_high/lib\libxil.a(xil_exception.o) (microblaze_disable_interrupts)
../../wlan_bsp_cpu_high/mb_high/lib\libxil.a(microblaze_enable_exceptions.o)
                              ../../wlan_bsp_cpu_high/mb_high/lib\libxil.a(xil_exception.o) (microblaze_enable_exceptions)
../../wlan_bsp_cpu_high/mb_high/lib\libxil.a(microblaze_enable_interrupts.o)
                              ../../wlan_bsp_cpu_high/mb_high/lib\libxil.a(xil_exception.o) (microblaze_enable_interrupts)
../../wlan_bsp_cpu_high/mb_high/lib\libxil.a(microblaze_invalidate_dcache_range.o)
                              ../../wlan_bsp_cpu_high/mb_high/lib\libxil.a(xaxicdma_bdring.o) (microblaze_invalidate_dcache_range)
../../wlan_bsp_cpu_high/mb_high/lib\libxil.a(xil_assert.o)
                              ../../wlan_bsp_cpu_high/mb_high/lib\libxil.a(xaxiethernet.o) (Xil_Assert)
../../wlan_bsp_cpu_high/mb_high/lib\libxil.a(WARP_ip_udp_config.o)
                              ../../wlan_bsp_cpu_high/mb_high/lib\libxil.a(WARP_ip_udp_eth.o) (eth_init_device_info)
../../wlan_bsp_cpu_high/mb_high/lib\libxil.a(xaxicdma_bd.o)
                              ../../wlan_bsp_cpu_high/mb_high/lib\libxil.a(xaxicdma_bdring.o) (XAxiCdma_BdClone)
../../wlan_bsp_cpu_high/mb_high/lib\libxil.a(xaxicdma_g.o)
                              ../../wlan_bsp_cpu_high/mb_high/lib\libxil.a(xaxicdma_sinit.o) (XAxiCdma_ConfigTable)
../../wlan_bsp_cpu_high/mb_high/lib\libxil.a(xaxidma_g.o)
                              ../../wlan_bsp_cpu_high/mb_high/lib\libxil.a(xaxidma_sinit.o) (XAxiDma_ConfigTable)
../../wlan_bsp_cpu_high/mb_high/lib\libxil.a(xaxiethernet_g.o)
                              ../../wlan_bsp_cpu_high/mb_high/lib\libxil.a(xaxiethernet_sinit.o) (XAxiEthernet_ConfigTable)
../../wlan_bsp_cpu_high/mb_high/lib\libxil.a(xgpio_g.o)
                              ../../wlan_bsp_cpu_high/mb_high/lib\libxil.a(xgpio_sinit.o) (XGpio_ConfigTable)
../../wlan_bsp_cpu_high/mb_high/lib\libxil.a(xuartlite_g.o)
                              ../../wlan_bsp_cpu_high/mb_high/lib\libxil.a(xuartlite_sinit.o) (XUartLite_ConfigTable)
../../wlan_bsp_cpu_high/mb_high/lib\libxil.a(xmbox_g.o)
                              ../../wlan_bsp_cpu_high/mb_high/lib\libxil.a(xmbox_sinit.o) (XMbox_ConfigTable)
../../wlan_bsp_cpu_high/mb_high/lib\libxil.a(xmutex_g.o)
                              ../../wlan_bsp_cpu_high/mb_high/lib\libxil.a(xmutex_sinit.o) (XMutex_ConfigTable)
c:/xilinx/14.4/ise_ds/edk/gnu/microblaze/nt64/bin/../lib/gcc/microblaze-xilinx-elf/4.6.2/bs/m/le\libgcc.a(_fixunssfsi.o)
                              ./src/wlan_mac_chan_util.o (__fixunssfsi)
c:/xilinx/14.4/ise_ds/edk/gnu/microblaze/nt64/bin/../lib/gcc/microblaze-xilinx-elf/4.6.2/bs/m/le\libgcc.a(_floatundisf.o)
                              ./src/wlan_mac_chan_util.o (__floatundisf)
c:/xilinx/14.4/ise_ds/edk/gnu/microblaze/nt64/bin/../lib/gcc/microblaze-xilinx-elf/4.6.2/bs/m/le\libgcc.a(_udivdi3.o)
                              ./wlan_mac_high_framework/wlan_mac_bss_info.o (__udivdi3)
c:/xilinx/14.4/ise_ds/edk/gnu/microblaze/nt64/bin/../lib/gcc/microblaze-xilinx-elf/4.6.2/bs/m/le\libgcc.a(_addsub_sf.o)
                              ./src/wlan_mac_chan_util.o (__subsf3)
c:/xilinx/14.4/ise_ds/edk/gnu/microblaze/nt64/bin/../lib/gcc/microblaze-xilinx-elf/4.6.2/bs/m/le\libgcc.a(_mul_sf.o)
                              ./src/wlan_mac_chan_util.o (__mulsf3)
c:/xilinx/14.4/ise_ds/edk/gnu/microblaze/nt64/bin/../lib/gcc/microblaze-xilinx-elf/4.6.2/bs/m/le\libgcc.a(_div_sf.o)
                              ./src/wlan_mac_chan_util.o (__divsf3)
c:/xilinx/14.4/ise_ds/edk/gnu/microblaze/nt64/bin/../lib/gcc/microblaze-xilinx-elf/4.6.2/bs/m/le\libgcc.a(_ge_sf.o)
                              c:/xilinx/14.4/ise_ds/edk/gnu/microblaze/nt64/bin/../lib/gcc/microblaze-xilinx-elf/4.6.2/bs/m/le\libgcc.a(_fixunssfsi.o) (__gesf2)
c:/xilinx/14.4/ise_ds/edk/gnu/microblaze/nt64/bin/../lib/gcc/microblaze-xilinx-elf/4.6.2/bs/m/le\libgcc.a(_sf_to_si.o)
                              c:/xilinx/14.4/ise_ds/edk/gnu/microblaze/nt64/bin/../lib/gcc/microblaze-xilinx-elf/4.6.2/bs/m/le\libgcc.a(_fixunssfsi.o) (__fixsfsi)
c:/xilinx/14.4/ise_ds/edk/gnu/microblaze/nt64/bin/../lib/gcc/microblaze-xilinx-elf/4.6.2/bs/m/le\libgcc.a(_thenan_sf.o)
                              c:/xilinx/14.4/ise_ds/edk/gnu/microblaze/nt64/bin/../lib/gcc/microblaze-xilinx-elf/4.6.2/bs/m/le\libgcc.a(_addsub_sf.o) (__thenan_sf)
c:/xilinx/14.4/ise_ds/edk/gnu/microblaze/nt64/bin/../lib/gcc/microblaze-xilinx-elf/4.6.2/bs/m/le\libgcc.a(_usi_to_sf.o)
                              ./src/wlan_mac_chan_util.o (__floatunsisf)
c:/xilinx/14.4/ise_ds/edk/gnu/microblaze/nt64/bin/../lib/gcc/microblaze-xilinx-elf/4.6.2/bs/m/le\libgcc.a(_addsub_df.o)
                              c:/xilinx/14.4/ise_ds/edk/gnu/microblaze/nt64/bin/../lib/gcc/microblaze-xilinx-elf/4.6.2/bs/m/le\libgcc.a(_floatundisf.o) (__adddf3)
c:/xilinx/14.4/ise_ds/edk/gnu/microblaze/nt64/bin/../lib/gcc/microblaze-xilinx-elf/4.6.2/bs/m/le\libgcc.a(_mul_df.o)
                              c:/xilinx/14.4/ise_ds/edk/gnu/microblaze/nt64/bin/../lib/gcc/microblaze-xilinx-elf/4.6.2/bs/m/le\libgcc.a(_floatundisf.o) (__muldf3)
c:/xilinx/14.4/ise_ds/edk/gnu/microblaze/nt64/bin/../lib/gcc/microblaze-xilinx-elf/4.6.2/bs/m/le\libgcc.a(_df_to_sf.o)
                              c:/xilinx/14.4/ise_ds/edk/gnu/microblaze/nt64/bin/../lib/gcc/microblaze-xilinx-elf/4.6.2/bs/m/le\libgcc.a(_floatundisf.o) (__truncdfsf2)
c:/xilinx/14.4/ise_ds/edk/gnu/microblaze/nt64/bin/../lib/gcc/microblaze-xilinx-elf/4.6.2/bs/m/le\libgcc.a(_thenan_df.o)
                              c:/xilinx/14.4/ise_ds/edk/gnu/microblaze/nt64/bin/../lib/gcc/microblaze-xilinx-elf/4.6.2/bs/m/le\libgcc.a(_addsub_df.o) (__thenan_df)
c:/xilinx/14.4/ise_ds/edk/gnu/microblaze/nt64/bin/../lib/gcc/microblaze-xilinx-elf/4.6.2/bs/m/le\libgcc.a(_usi_to_df.o)
                              c:/xilinx/14.4/ise_ds/edk/gnu/microblaze/nt64/bin/../lib/gcc/microblaze-xilinx-elf/4.6.2/bs/m/le\libgcc.a(_floatundisf.o) (__floatunsidf)
c:/xilinx/14.4/ise_ds/edk/gnu/microblaze/nt64/bin/../lib/gcc/microblaze-xilinx-elf/4.6.2/bs/m/le\libgcc.a(modsi3.o)
                              ./src/wlan_mac_ap.o (__modsi3)
c:/xilinx/14.4/ise_ds/edk/gnu/microblaze/nt64/bin/../lib/gcc/microblaze-xilinx-elf/4.6.2/bs/m/le\libgcc.a(udivsi3.o)
                              ./wlan_mac_high_framework/wlan_exp_node.o (__udivsi3)
c:/xilinx/14.4/ise_ds/edk/gnu/microblaze/nt64/bin/../lib/gcc/microblaze-xilinx-elf/4.6.2/bs/m/le\libgcc.a(umodsi3.o)
                              ./wlan_mac_high_framework/wlan_exp_node.o (__umodsi3)
c:/xilinx/14.4/ise_ds/edk/gnu/microblaze/nt64/bin/../lib/gcc/microblaze-xilinx-elf/4.6.2/bs/m/le\libgcc.a(_muldi3.o)
                              c:/xilinx/14.4/ise_ds/edk/gnu/microblaze/nt64/bin/../lib/gcc/microblaze-xilinx-elf/4.6.2/bs/m/le\libgcc.a(_mul_sf.o) (__muldi3)
c:/xilinx/14.4/ise_ds/edk/gnu/microblaze/nt64/bin/../lib/gcc/microblaze-xilinx-elf/4.6.2/bs/m/le\libgcc.a(_clz.o)
                              c:/xilinx/14.4/ise_ds/edk/gnu/microblaze/nt64/bin/../lib/gcc/microblaze-xilinx-elf/4.6.2/bs/m/le\libgcc.a(_udivdi3.o) (__clz_tab)
c:/xilinx/14.4/ise_ds/edk/gnu/microblaze/nt64/bin/../lib/gcc/microblaze-xilinx-elf/4.6.2/bs/m/le\libgcc.a(_clzsi2.o)
                              c:/xilinx/14.4/ise_ds/edk/gnu/microblaze/nt64/bin/../lib/gcc/microblaze-xilinx-elf/4.6.2/bs/m/le\libgcc.a(_usi_to_sf.o) (__clzsi2)
c:/xilinx/14.4/ise_ds/edk/gnu/microblaze/nt64/bin/../lib/gcc/microblaze-xilinx-elf/4.6.2/bs/m/le\libgcc.a(_pack_sf.o)
                              c:/xilinx/14.4/ise_ds/edk/gnu/microblaze/nt64/bin/../lib/gcc/microblaze-xilinx-elf/4.6.2/bs/m/le\libgcc.a(_addsub_sf.o) (__pack_f)
c:/xilinx/14.4/ise_ds/edk/gnu/microblaze/nt64/bin/../lib/gcc/microblaze-xilinx-elf/4.6.2/bs/m/le\libgcc.a(_unpack_sf.o)
                              c:/xilinx/14.4/ise_ds/edk/gnu/microblaze/nt64/bin/../lib/gcc/microblaze-xilinx-elf/4.6.2/bs/m/le\libgcc.a(_addsub_sf.o) (__unpack_f)
c:/xilinx/14.4/ise_ds/edk/gnu/microblaze/nt64/bin/../lib/gcc/microblaze-xilinx-elf/4.6.2/bs/m/le\libgcc.a(_fpcmp_parts_sf.o)
                              c:/xilinx/14.4/ise_ds/edk/gnu/microblaze/nt64/bin/../lib/gcc/microblaze-xilinx-elf/4.6.2/bs/m/le\libgcc.a(_ge_sf.o) (__fpcmp_parts_f)
c:/xilinx/14.4/ise_ds/edk/gnu/microblaze/nt64/bin/../lib/gcc/microblaze-xilinx-elf/4.6.2/bs/m/le\libgcc.a(_make_sf.o)
                              c:/xilinx/14.4/ise_ds/edk/gnu/microblaze/nt64/bin/../lib/gcc/microblaze-xilinx-elf/4.6.2/bs/m/le\libgcc.a(_df_to_sf.o) (__make_fp)
c:/xilinx/14.4/ise_ds/edk/gnu/microblaze/nt64/bin/../lib/gcc/microblaze-xilinx-elf/4.6.2/bs/m/le\libgcc.a(_pack_df.o)
                              c:/xilinx/14.4/ise_ds/edk/gnu/microblaze/nt64/bin/../lib/gcc/microblaze-xilinx-elf/4.6.2/bs/m/le\libgcc.a(_addsub_df.o) (__pack_d)
c:/xilinx/14.4/ise_ds/edk/gnu/microblaze/nt64/bin/../lib/gcc/microblaze-xilinx-elf/4.6.2/bs/m/le\libgcc.a(_unpack_df.o)
                              c:/xilinx/14.4/ise_ds/edk/gnu/microblaze/nt64/bin/../lib/gcc/microblaze-xilinx-elf/4.6.2/bs/m/le\libgcc.a(_addsub_df.o) (__unpack_d)
c:/xilinx/14.4/ise_ds/edk/gnu/microblaze/nt64/bin/../lib/gcc/microblaze-xilinx-elf/4.6.2/bs/m/le\libgcc.a(_lshrdi3.o)
                              c:/xilinx/14.4/ise_ds/edk/gnu/microblaze/nt64/bin/../lib/gcc/microblaze-xilinx-elf/4.6.2/bs/m/le\libgcc.a(_pack_df.o) (__lshrdi3)
c:/xilinx/14.4/ise_ds/edk/gnu/microblaze/nt64/bin/../lib/gcc/microblaze-xilinx-elf/4.6.2/bs/m/le\libgcc.a(_ashldi3.o)
                              c:/xilinx/14.4/ise_ds/edk/gnu/microblaze/nt64/bin/../lib/gcc/microblaze-xilinx-elf/4.6.2/bs/m/le\libgcc.a(_pack_df.o) (__ashldi3)
../../wlan_bsp_cpu_high/mb_high/lib\libc.a(lib_a-ctype_.o)
                              ../../wlan_bsp_cpu_high/mb_high/lib\libxil.a(xil_printf.o) (__ctype_ptr__)
../../wlan_bsp_cpu_high/mb_high/lib\libc.a(lib_a-exit.o)
                              c:/xilinx/14.4/ise_ds/edk/gnu/microblaze/nt64/bin/../lib/gcc/microblaze-xilinx-elf/4.6.2/../../../../microblaze-xilinx-elf/lib/bs/m/le/crt0.o (exit)
../../wlan_bsp_cpu_high/mb_high/lib\libc.a(lib_a-impure.o)
                              ../../wlan_bsp_cpu_high/mb_high/lib\libc.a(lib_a-exit.o) (_global_impure_ptr)
../../wlan_bsp_cpu_high/mb_high/lib\libc.a(lib_a-malloc.o)
                              ./wlan_mac_high_framework/wlan_mac_high.o (malloc)
../../wlan_bsp_cpu_high/mb_high/lib\libc.a(lib_a-mallocr.o)
                              ../../wlan_bsp_cpu_high/mb_high/lib\libc.a(lib_a-malloc.o) (_malloc_r)
../../wlan_bsp_cpu_high/mb_high/lib\libc.a(lib_a-memcmp.o)
                              ./wlan_mac_high_framework/wlan_exp_node.o (memcmp)
../../wlan_bsp_cpu_high/mb_high/lib\libc.a(lib_a-memcpy.o)
                              ./wlan_mac_high_framework/wlan_exp_node.o (memcpy)
../../wlan_bsp_cpu_high/mb_high/lib\libc.a(lib_a-memmove.o)
                              ./wlan_mac_high_framework/wlan_mac_eth_util.o (memmove)
../../wlan_bsp_cpu_high/mb_high/lib\libc.a(lib_a-memset.o)
                              ./wlan_mac_high_framework/wlan_exp_common.o (memset)
../../wlan_bsp_cpu_high/mb_high/lib\libc.a(lib_a-mlock.o)
                              ../../wlan_bsp_cpu_high/mb_high/lib\libc.a(lib_a-mallocr.o) (__malloc_lock)
../../wlan_bsp_cpu_high/mb_high/lib\libc.a(lib_a-mstats.o)
                              ./wlan_mac_high_framework/wlan_mac_high.o (mallinfo)
../../wlan_bsp_cpu_high/mb_high/lib\libc.a(lib_a-rand.o)
                              ./wlan_mac_high_framework/wlan_exp_node.o (srand)
../../wlan_bsp_cpu_high/mb_high/lib\libc.a(lib_a-realloc.o)
                              ./wlan_mac_high_framework/wlan_mac_high.o (realloc)
../../wlan_bsp_cpu_high/mb_high/lib\libc.a(lib_a-reallocr.o)
                              ../../wlan_bsp_cpu_high/mb_high/lib\libc.a(lib_a-realloc.o) (_realloc_r)
../../wlan_bsp_cpu_high/mb_high/lib\libc.a(lib_a-sbrkr.o)
                              ../../wlan_bsp_cpu_high/mb_high/lib\libc.a(lib_a-mallocr.o) (_sbrk_r)
../../wlan_bsp_cpu_high/mb_high/lib\libc.a(lib_a-strcmp.o)
                              ./wlan_mac_high_framework/wlan_mac_bss_info.o (strcmp)
../../wlan_bsp_cpu_high/mb_high/lib\libc.a(lib_a-strcpy.o)
                              ./wlan_mac_high_framework/wlan_mac_high.o (strcpy)
../../wlan_bsp_cpu_high/mb_high/lib\libc.a(lib_a-strlen.o)
                              ./wlan_mac_high_framework/wlan_mac_packet_types.o (strlen)
../../wlan_bsp_cpu_high/mb_high/lib\libc.a(lib_a-strncmp.o)
                              ./src/wlan_mac_ap.o (strncmp)
../../wlan_bsp_cpu_high/mb_high/lib\libc.a(lib_a-strncpy.o)
                              ./wlan_mac_high_framework/wlan_mac_bss_info.o (strncpy)
../../wlan_bsp_cpu_high/mb_high/lib\libc.a(lib_a-strndup.o)
                              ./wlan_mac_high_framework/wlan_exp_node.o (strndup)
../../wlan_bsp_cpu_high/mb_high/lib\libc.a(lib_a-strndup_r.o)
                              ../../wlan_bsp_cpu_high/mb_high/lib\libc.a(lib_a-strndup.o) (_strndup_r)
../../wlan_bsp_cpu_high/mb_high/lib\libc.a(lib_a-strnlen.o)
                              ./src/wlan_mac_ap.o (strnlen)
../../wlan_bsp_cpu_high/mb_high/lib\libc.a(lib_a-strrchr.o)
                              ./wlan_mac_high_framework/wlan_exp_common.o (strrchr)
../../wlan_bsp_cpu_high/mb_high/lib\libc.a(lib_a-__call_atexit.o)
                              ../../wlan_bsp_cpu_high/mb_high/lib\libc.a(lib_a-exit.o) (__call_exitprocs)
../../wlan_bsp_cpu_high/mb_high/lib\libc.a(lib_a-findfp.o)
                              ../../wlan_bsp_cpu_high/mb_high/lib\libc.a(lib_a-mstats.o) (__sinit)
../../wlan_bsp_cpu_high/mb_high/lib\libc.a(lib_a-fiprintf.o)
                              ../../wlan_bsp_cpu_high/mb_high/lib\libc.a(lib_a-mstats.o) (fiprintf)
../../wlan_bsp_cpu_high/mb_high/lib\libc.a(lib_a-freer.o)
                              ../../wlan_bsp_cpu_high/mb_high/lib\libc.a(lib_a-malloc.o) (_free_r)
../../wlan_bsp_cpu_high/mb_high/lib\libc.a(lib_a-fwalk.o)
                              ../../wlan_bsp_cpu_high/mb_high/lib\libc.a(lib_a-findfp.o) (_fwalk)
../../wlan_bsp_cpu_high/mb_high/lib\libc.a(lib_a-mallinfor.o)
                              ../../wlan_bsp_cpu_high/mb_high/lib\libc.a(lib_a-mstats.o) (_mallinfo_r)
../../wlan_bsp_cpu_high/mb_high/lib\libc.a(lib_a-malloptr.o)
                              ../../wlan_bsp_cpu_high/mb_high/lib\libc.a(lib_a-mstats.o) (_mallopt_r)
../../wlan_bsp_cpu_high/mb_high/lib\libc.a(lib_a-mallstatsr.o)
                              ../../wlan_bsp_cpu_high/mb_high/lib\libc.a(lib_a-mstats.o) (_malloc_stats_r)
../../wlan_bsp_cpu_high/mb_high/lib\libc.a(lib_a-reent.o)
                              ../../wlan_bsp_cpu_high/mb_high/lib\libc.a(lib_a-sbrkr.o) (errno)
../../wlan_bsp_cpu_high/mb_high/lib\libc.a(lib_a-stdio.o)
                              ../../wlan_bsp_cpu_high/mb_high/lib\libc.a(lib_a-findfp.o) (__sread)
../../wlan_bsp_cpu_high/mb_high/lib\libc.a(lib_a-strchr.o)
                              ../../wlan_bsp_cpu_high/mb_high/lib\libc.a(lib_a-strrchr.o) (strchr)
../../wlan_bsp_cpu_high/mb_high/lib\libc.a(lib_a-vfiprintf.o)
                              ../../wlan_bsp_cpu_high/mb_high/lib\libc.a(lib_a-fiprintf.o) (_vfiprintf_r)
../../wlan_bsp_cpu_high/mb_high/lib\libc.a(lib_a-writer.o)
                              ../../wlan_bsp_cpu_high/mb_high/lib\libc.a(lib_a-stdio.o) (_write_r)
../../wlan_bsp_cpu_high/mb_high/lib\libc.a(lib_a-wsetup.o)
                              ../../wlan_bsp_cpu_high/mb_high/lib\libc.a(lib_a-vfiprintf.o) (__swsetup_r)
../../wlan_bsp_cpu_high/mb_high/lib\libc.a(lib_a-closer.o)
                              ../../wlan_bsp_cpu_high/mb_high/lib\libc.a(lib_a-stdio.o) (_close_r)
../../wlan_bsp_cpu_high/mb_high/lib\libc.a(lib_a-fclose.o)
                              ../../wlan_bsp_cpu_high/mb_high/lib\libc.a(lib_a-findfp.o) (fclose)
../../wlan_bsp_cpu_high/mb_high/lib\libc.a(lib_a-fflush.o)
                              ../../wlan_bsp_cpu_high/mb_high/lib\libc.a(lib_a-vfiprintf.o) (_fflush_r)
../../wlan_bsp_cpu_high/mb_high/lib\libc.a(lib_a-fputwc.o)
                              ../../wlan_bsp_cpu_high/mb_high/lib\libc.a(lib_a-vfiprintf.o) (_fputwc_r)
../../wlan_bsp_cpu_high/mb_high/lib\libc.a(lib_a-fvwrite.o)
                              ../../wlan_bsp_cpu_high/mb_high/lib\libc.a(lib_a-vfiprintf.o) (__sfvwrite_r)
../../wlan_bsp_cpu_high/mb_high/lib\libc.a(lib_a-locale.o)
                              ../../wlan_bsp_cpu_high/mb_high/lib\libc.a(lib_a-fputwc.o) (__locale_mb_cur_max)
../../wlan_bsp_cpu_high/mb_high/lib\libc.a(lib_a-lseekr.o)
                              ../../wlan_bsp_cpu_high/mb_high/lib\libc.a(lib_a-stdio.o) (_lseek_r)
../../wlan_bsp_cpu_high/mb_high/lib\libc.a(lib_a-makebuf.o)
                              ../../wlan_bsp_cpu_high/mb_high/lib\libc.a(lib_a-wsetup.o) (__smakebuf_r)
../../wlan_bsp_cpu_high/mb_high/lib\libc.a(lib_a-memchr.o)
                              ../../wlan_bsp_cpu_high/mb_high/lib\libc.a(lib_a-vfiprintf.o) (memchr)
../../wlan_bsp_cpu_high/mb_high/lib\libc.a(lib_a-readr.o)
                              ../../wlan_bsp_cpu_high/mb_high/lib\libc.a(lib_a-stdio.o) (_read_r)
../../wlan_bsp_cpu_high/mb_high/lib\libc.a(lib_a-wbuf.o)
                              ../../wlan_bsp_cpu_high/mb_high/lib\libc.a(lib_a-fputwc.o) (__swbuf_r)
../../wlan_bsp_cpu_high/mb_high/lib\libc.a(lib_a-wcrtomb.o)
                              ../../wlan_bsp_cpu_high/mb_high/lib\libc.a(lib_a-fputwc.o) (_wcrtomb_r)
../../wlan_bsp_cpu_high/mb_high/lib\libc.a(lib_a-wctomb_r.o)
                              ../../wlan_bsp_cpu_high/mb_high/lib\libc.a(lib_a-wcrtomb.o) (__wctomb)
../../wlan_bsp_cpu_high/mb_high/lib\libc.a(lib_a-fstatr.o)
                              ../../wlan_bsp_cpu_high/mb_high/lib\libc.a(lib_a-makebuf.o) (_fstat_r)
../../wlan_bsp_cpu_high/mb_high/lib\libc.a(lib_a-isattyr.o)
                              ../../wlan_bsp_cpu_high/mb_high/lib\libc.a(lib_a-makebuf.o) (_isatty_r)
../../wlan_bsp_cpu_high/mb_high/lib\libxil.a(fstat.o)
                              ../../wlan_bsp_cpu_high/mb_high/lib\libc.a(lib_a-fstatr.o) (fstat)
../../wlan_bsp_cpu_high/mb_high/lib\libxil.a(isatty.o)
                              ../../wlan_bsp_cpu_high/mb_high/lib\libc.a(lib_a-isattyr.o) (isatty)
../../wlan_bsp_cpu_high/mb_high/lib\libxil.a(lseek.o)
                              ../../wlan_bsp_cpu_high/mb_high/lib\libc.a(lib_a-lseekr.o) (lseek)
../../wlan_bsp_cpu_high/mb_high/lib\libxil.a(sbrk.o)
                              ../../wlan_bsp_cpu_high/mb_high/lib\libc.a(lib_a-sbrkr.o) (sbrk)
../../wlan_bsp_cpu_high/mb_high/lib\libxil.a(write.o)
                              ../../wlan_bsp_cpu_high/mb_high/lib\libc.a(lib_a-writer.o) (write)
../../wlan_bsp_cpu_high/mb_high/lib\libxil.a(read.o)
                              ../../wlan_bsp_cpu_high/mb_high/lib\libc.a(lib_a-readr.o) (read)
../../wlan_bsp_cpu_high/mb_high/lib\libxil.a(close.o)
                              ../../wlan_bsp_cpu_high/mb_high/lib\libc.a(lib_a-closer.o) (close)
../../wlan_bsp_cpu_high/mb_high/lib\libxil.a(errno.o)
                              ../../wlan_bsp_cpu_high/mb_high/lib\libxil.a(lseek.o) (__errno)
../../wlan_bsp_cpu_high/mb_high/lib\libxil.a(inbyte.o)
                              ../../wlan_bsp_cpu_high/mb_high/lib\libxil.a(read.o) (inbyte)
c:/xilinx/14.4/ise_ds/edk/gnu/microblaze/nt64/bin/../lib/gcc/microblaze-xilinx-elf/4.6.2/bs/m/le\libgcc.a(_umoddi3.o)
                              ../../wlan_bsp_cpu_high/mb_high/lib\libc.a(lib_a-vfiprintf.o) (__umoddi3)

Allocating common symbols
Common symbol       size              file

tx_probe_request_callback
                    0x4               ./wlan_mac_high_framework/wlan_mac_scan.o
ETH_send_buffers    0x38              ../../wlan_bsp_cpu_high/mb_high/lib\libxil.a(WARP_ip_udp_init.o)
time_elapsed        0x8               ./src/wlan_mac_chan_util.o
UartLite            0x4c              ./wlan_mac_high_framework/wlan_mac_high.o
pb_d_callback       0x4               ./wlan_mac_high_framework/wlan_mac_high.o
low_param_channel   0x4               ./wlan_mac_high_framework/wlan_mac_high.o
chan_state          0x14              ./src/wlan_mac_chan_util.o
gl_scan_parameters  0x14              ./wlan_mac_high_framework/wlan_mac_scan.o
cdma_inst           0x164             ./wlan_mac_high_framework/wlan_mac_high.o
default_unicast_data_tx_params
                    0x8               ./src/wlan_mac_ap.o
errno               0x4               ../../wlan_bsp_cpu_high/mb_high/lib\libc.a(lib_a-reent.o)
scan_state_change_callback
                    0x4               ./wlan_mac_high_framework/wlan_mac_scan.o
mpdu_tx_high_done_callback
                    0x4               ./wlan_mac_high_framework/wlan_mac_high.o
XIntc_BitPosMask    0x2c              ../../wlan_bsp_cpu_high/mb_high/lib\libxil.a(xintc.o)
authenticated_unassociated_stations
                    0xc               ./src/wlan_mac_ap.o
pause_data_queue    0x1               ./src/wlan_mac_ap.o
chan_info           0x518             ./src/wlan_mac_chan_util.o
XAssertStatus       0x4               ../../wlan_bsp_cpu_high/mb_high/lib\libxil.a(xbasic_types.o)
active_bss_info     0x4               ./src/wlan_mac_ap.o
beacon_tx_done_callback
                    0x4               ./wlan_mac_high_framework/wlan_mac_high.o
ETH_1_instance      0x34              ../../wlan_bsp_cpu_high/mb_high/lib\libxil.a(WARP_ip_udp_config.o)
low_param_random_seed
                    0x4               ./wlan_mac_high_framework/wlan_mac_high.o
mac_param_chan      0x1               ./src/wlan_mac_ap.o
ETH_1_recv_buffers  0x54              ../../wlan_bsp_cpu_high/mb_high/lib\libxil.a(WARP_ip_udp_config.o)
interrupt_disable_callback
                    0x4               ../../wlan_bsp_cpu_high/mb_high/lib\libxil.a(WARP_ip_udp_eth.o)
sort_mode           0x1               ./src/wlan_mac_chan_util.o
low_param_rx_ant_mode
                    0x1               ./wlan_mac_high_framework/wlan_mac_high.o
process_hton_msg_callback
                    0x4               ./wlan_mac_high_framework/wlan_exp_transport.o
default_multicast_data_tx_params
                    0x8               ./src/wlan_mac_ap.o
ipc_msg_from_low    0x8               ./wlan_mac_high_framework/wlan_mac_high.o
interrupt_enable_callback
                    0x4               ../../wlan_bsp_cpu_high/mb_high/lib\libxil.a(WARP_ip_udp_eth.o)
default_multicast_mgmt_tx_params
                    0x8               ./src/wlan_mac_ap.o
cpu_low_reboot_callback
                    0x4               ./wlan_mac_high_framework/wlan_mac_high.o
tx_poll_callback    0x4               ./wlan_mac_high_framework/wlan_mac_high.o
low_param_dsss_en   0x4               ./wlan_mac_high_framework/wlan_mac_high.o
hw_info             0x4               ./wlan_mac_high_framework/wlan_mac_high.o
low_param_rx_filter
                    0x4               ./wlan_mac_high_framework/wlan_mac_high.o
pb_u_callback       0x4               ./wlan_mac_high_framework/wlan_mac_high.o
ap_mode             0x1               ./src/wlan_mac_chan_util.o
ipc_msg_from_low_payload
                    0x190             ./wlan_mac_high_framework/wlan_mac_high.o
uart_callback       0x4               ./wlan_mac_high_framework/wlan_mac_high.o
pb_m_callback       0x4               ./wlan_mac_high_framework/wlan_mac_high.o
ETH_sockets         0x78              ../../wlan_bsp_cpu_high/mb_high/lib\libxil.a(WARP_ip_udp_init.o)
mpdu_rx_callback    0x4               ./wlan_mac_high_framework/wlan_mac_high.o
default_unicast_mgmt_tx_params
                    0x8               ./src/wlan_mac_ap.o
Xil_AssertStatus    0x4               ../../wlan_bsp_cpu_high/mb_high/lib\libxil.a(xil_assert.o)
mpdu_tx_dequeue_callback
                    0x4               ./wlan_mac_high_framework/wlan_mac_high.o
mpdu_data           0xfa4             ./src/wlan_mac_chan_util.o
dram_present        0x1               ./wlan_mac_high_framework/wlan_mac_high.o
InterruptController
                    0x14              ./wlan_mac_high_framework/wlan_mac_high.o
ETH_allocated_send_buffers
                    0x4               ../../wlan_bsp_cpu_high/mb_high/lib\libxil.a(WARP_ip_udp_init.o)
eth_device          0x90              ../../wlan_bsp_cpu_high/mb_high/lib\libxil.a(WARP_ip_udp_config.o)
mpdu_tx_low_done_callback
                    0x4               ./wlan_mac_high_framework/wlan_mac_high.o
ETH_arp_cache       0xc8              ../../wlan_bsp_cpu_high/mb_high/lib\libxil.a(WARP_ip_udp_init.o)
node_info           0x34              ./wlan_mac_high_framework/wlan_exp_node.o
ETH_1_dma_instance  0x67c             ../../wlan_bsp_cpu_high/mb_high/lib\libxil.a(WARP_ip_udp_config.o)
low_param_tx_ctrl_pow
                    0x1               ./wlan_mac_high_framework/wlan_mac_high.o
uart_rx_buffer      0x1               ./wlan_mac_high_framework/wlan_mac_high.o
chan_data           0x3e              ./src/wlan_mac_chan_util.o
addr_filter         0xc               ./wlan_mac_high_framework/wlan_mac_addr_filter.o

Memory Configuration

Name             Origin             Length             Attributes
mb_high_ilmb_bram_cntlr_0_mb_high_dlmb_bram_cntlr_0 0x00000050         0x0001ffb0
mb_high_ilmb_bram_cntlr_1_mb_high_dlmb_bram_cntlr_1 0x00020000         0x00020000
mb_high_init_bram_ctrl_S_AXI_BASEADDR 0x10000000         0x00001000
pkt_buff_rx_bram_ctrl_S_AXI_BASEADDR 0x90000000         0x00010000
pkt_buff_tx_bram_ctrl_S_AXI_BASEADDR 0x91000000         0x00010000
mb_high_aux_bram_ctrl_S_AXI_BASEADDR 0xa0000000         0x00010000
ddr3_sodimm_S_AXI_BASEADDR 0xc0000000         0x40000000
*default*        0x00000000         0xffffffff

Linker script and memory map

LOAD c:/xilinx/14.4/ise_ds/edk/gnu/microblaze/nt64/bin/../lib/gcc/microblaze-xilinx-elf/4.6.2/../../../../microblaze-xilinx-elf/lib/bs/m/le/crt0.o
LOAD c:/xilinx/14.4/ise_ds/edk/gnu/microblaze/nt64/bin/../lib/gcc/microblaze-xilinx-elf/4.6.2/bs/m/le/crti.o
LOAD c:/xilinx/14.4/ise_ds/edk/gnu/microblaze/nt64/bin/../lib/gcc/microblaze-xilinx-elf/4.6.2/bs/m/le/crtbegin.o
LOAD c:/xilinx/14.4/ise_ds/edk/gnu/microblaze/nt64/bin/../lib/gcc/microblaze-xilinx-elf/4.6.2/../../../../microblaze-xilinx-elf/lib/bs/m/le/crtinit.o
                [0x00001000]                _STACK_SIZE = DEFINED (_STACK_SIZE)?_STACK_SIZE:0x1000
                [0x00002000]                _HEAP_SIZE = DEFINED (_HEAP_SIZE)?_HEAP_SIZE:0x2000

.vectors.reset  0x00000000        0x8
 *(.vectors.reset)
 .vectors.reset
                0x00000000        0x8 c:/xilinx/14.4/ise_ds/edk/gnu/microblaze/nt64/bin/../lib/gcc/microblaze-xilinx-elf/4.6.2/../../../../microblaze-xilinx-elf/lib/bs/m/le/crt0.o
                0x00000000                _start

.vectors.sw_exception
                0x00000008        0x8
 *(.vectors.sw_exception)
 .vectors.sw_exception
                0x00000008        0x8 c:/xilinx/14.4/ise_ds/edk/gnu/microblaze/nt64/bin/../lib/gcc/microblaze-xilinx-elf/4.6.2/../../../../microblaze-xilinx-elf/lib/bs/m/le/crt0.o

.vectors.interrupt
                0x00000010        0x8
 *(.vectors.interrupt)
 .vectors.interrupt
                0x00000010        0x8 c:/xilinx/14.4/ise_ds/edk/gnu/microblaze/nt64/bin/../lib/gcc/microblaze-xilinx-elf/4.6.2/../../../../microblaze-xilinx-elf/lib/bs/m/le/crt0.o

.vectors.hw_exception
                0x00000020        0x8
 *(.vectors.hw_exception)
 .vectors.hw_exception
                0x00000020        0x8 c:/xilinx/14.4/ise_ds/edk/gnu/microblaze/nt64/bin/../lib/gcc/microblaze-xilinx-elf/4.6.2/../../../../microblaze-xilinx-elf/lib/bs/m/le/crt0.o

.text_bram_1    0x00020000    0x128c4
 *wlan_mac_high_framework*(.text)
 .text          0x00020000      0x668 ./wlan_mac_high_framework/wlan_exp_common.o
                0x00020000                wlan_exp_print_header
                0x00020114                print_mac_address
                0x00020180                print_mac_timestamp
                0x000201b8                wlan_exp_print_mac_address
                0x000201e4                wlan_exp_set_print_level
                0x00020234                wlan_exp_null_callback
                0x00020290                wlan_exp_get_mac_addr
                0x000202c4                wlan_exp_put_mac_addr
                0x0002030c                clear_ddr
                0x000203e4                wlan_exp_init_parameters
                0x00020440                wlan_exp_get_parameters
 .text          0x00020668     0x5eb8 ./wlan_mac_high_framework/wlan_exp_node.o
                0x00020668                wlan_exp_get_id_in_counts
                0x000206dc                wlan_exp_get_id_in_associated_stations
                0x00020778                find_counts_txrx
                0x00020798                find_station_info
                0x000207d0                ltg_cleanup
                0x000207f0                zero_bss_info
                0x00020814                zero_counts_txrx
                0x0002083c                zero_station_info
                0x00020860                copy_bss_info_to_dest
                0x0002097c                copy_station_info_to_dest
                0x00020a98                copy_counts_txrx_to_dest
                0x00020bfc                null_process_cmd_callback
                0x00020c60                wlan_exp_get_id_in_bss_info
                0x00020cb4                wlan_exp_node_set_type_design
                0x00020cd4                wlan_exp_node_set_type_high
                0x00020cfc                wlan_exp_node_set_type_low
                0x00020d1c                send_early_resp
                0x00020e08                process_buffer_cmds
                0x000213a8                transfer_log_data
                0x0002180c                wlan_exp_reset_all_callbacks
                0x0002185c                wlan_exp_set_process_node_cmd_callback
                0x0002186c                wlan_exp_set_purge_all_data_tx_queue_callback
                0x0002187c                wlan_exp_set_tx_cmd_add_association_callback
                0x0002188c                wlan_exp_set_process_user_cmd_callback
                0x0002189c                wlan_exp_set_beacon_ts_update_mode_callback
                0x000218ac                wlan_exp_set_process_config_bss_callback
                0x000218bc                wlan_exp_set_active_bss_info_getter_callback
                0x000218cc                node_init_parameters
                0x00021958                wlan_exp_node_init
                0x00021c24                node_get_parameters
                0x00021c60                node_get_parameter_values
                0x00021c98                node_get_node_id
                0x00021ca8                node_get_serial_number
                0x00021cb8                process_tx_power
                0x00021e9c                process_tx_rate
                0x0002211c                process_tx_ant_mode
                0x00022308                process_node_cmd
                0x00026364                process_hton_msg
 .text          0x00026520     0x176c ./wlan_mac_high_framework/wlan_exp_transport.o
                0x00026520                transport_eth_dev_info_init
                0x000266fc                transport_send
                0x000268cc                transport_receive
                0x00026bf0                transport_poll
                0x00026c78                transport_send_async
                0x00026d38                process_transport_cmd
                0x00026fbc                transport_set_process_hton_msg_callback
                0x00026fcc                transport_config_socket
                0x00027110                transport_config_sockets
                0x000271e8                transport_set_phy_link_speed
                0x00027314                transport_set_eth_phy_auto_negotiation
                0x000273c8                transport_check_device
                0x0002744c                transport_get_ethernet_status
                0x000274c0                transport_update_link_speed
                0x0002773c                transport_link_status
                0x00027768                transport_close
                0x000277dc                transport_set_hw_addr
                0x00027844                transport_get_hw_addr
                0x00027864                transport_set_ip_addr
                0x000278b8                transport_get_ip_addr
                0x000278d8                transport_reset_max_pkt_length
                0x000278f0                transport_init_parameters
                0x00027960                transport_init
                0x00027c48                transport_get_parameters
 .text          0x00027c8c       0x6c ./wlan_mac_high_framework/wlan_exp_user.o
                0x00027c8c                process_user_cmd
 .text          0x00027cf8      0x2c8 ./wlan_mac_high_framework/wlan_mac_addr_filter.o
                0x00027cf8                wlan_mac_addr_filter_init
                0x00027d20                wlan_mac_addr_filter_reset
                0x00027dd0                wlan_mac_addr_filter_add
                0x00027ecc                addr_is_allowed
                0x00027f10                wlan_mac_addr_is_warp
                0x00027f3c                wlan_mac_addr_filter_is_allowed
 .text          0x00027fc0      0xbcc ./wlan_mac_high_framework/wlan_mac_bss_info.o
                0x00027fc0                bss_info_init
                0x000280b0                bss_info_init_finish
                0x000280e4                print_bss_info
                0x000282a4                bss_info_checkout
                0x000282fc                bss_info_checkin
                0x00028328                wlan_mac_high_find_bss_info_SSID
                0x00028410                wlan_mac_high_find_bss_info_BSSID
                0x00028488                wlan_mac_high_find_bss_info_oldest
                0x000284c8                wlan_mac_high_clear_bss_info
                0x000285a0                wlan_mac_high_delete_bss_from_list
                0x00028614                wlan_mac_high_reset_network_list
                0x000286a4                wlan_mac_high_create_bss_info
                0x00028804                bss_info_timestamp_check
                0x000288b0                bss_info_rx_process
                0x00028b7c                wlan_mac_high_get_bss_info_list
 .text          0x00028b8c      0x494 ./wlan_mac_high_framework/wlan_mac_dl_list.o
                0x00028b8c                dl_list_init
                0x00028bc8                dl_entry_insertAfter
                0x00028c68                dl_entry_insertBefore
                0x00028d08                dl_entry_insertBeginning
                0x00028dac                dl_entry_insertEnd
                0x00028e04                dl_entry_move
                0x00028f68                dl_entry_remove
 .text          0x00029020     0x1118 ./wlan_mac_high_framework/wlan_mac_entries.o
                0x00029020                wlan_exp_log_get_entry_en_mask
                0x00029030                wlan_exp_log_set_entry_en_mask
                0x00029040                wlan_exp_log_reset_system_time_id
                0x00029058                wlan_exp_log_get_mac_payload_len
                0x00029068                wlan_exp_log_set_mac_payload_len
                0x000290ac                wlan_exp_log_create_entry
                0x000290cc                wlan_exp_log_get_txrx_entry_sizes
                0x0002927c                wlan_exp_log_create_rx_entry
                0x0002994c                wlan_exp_log_create_tx_high_entry
                0x00029aec                wlan_exp_log_create_tx_low_entry
                0x00029f00                add_node_info_entry
                0x00029fc0                add_time_info_entry
                0x0002a090                add_temperature_to_log
 .text          0x0002a138     0x134c ./wlan_mac_high_framework/wlan_mac_eth_util.o
                0x0002a138                init_rx_bd
                0x0002a21c                wlan_eth_dma_init
                0x0002a504                wlan_eth_init
                0x0002a664                wlan_mac_util_set_eth_rx_callback
                0x0002a674                wlan_mac_util_set_eth_encap_mode
                0x0002a684                eth_get_num_rx_bd
                0x0002a694                wlan_eth_setup_interrupt
                0x0002a710                wlan_eth_encap
                0x0002a994                wlan_process_eth_rx
                0x0002aa84                wlan_eth_dma_update
                0x0002ac30                wlan_process_all_eth_pkts
                0x0002ad84                eth_rx_interrupt_handler
                0x0002ae08                wlan_eth_dma_send
                0x0002afd8                wlan_mpdu_eth_send
 .text          0x0002b484      0xa20 ./wlan_mac_high_framework/wlan_mac_event_log.o
                0x0002b484                event_log_reset
                0x0002b500                event_log_config_wrap
                0x0002b53c                event_log_config_logging
                0x0002b578                event_log_init
                0x0002b678                event_log_get_data
                0x0002b754                event_log_get_size
                0x0002b790                event_log_get_capacity
                0x0002b7a0                event_log_get_next_entry_index
                0x0002b7b8                event_log_get_oldest_entry_index
                0x0002b7d0                event_log_get_total_size
                0x0002b824                event_log_get_num_wraps
                0x0002b834                event_log_get_flags
                0x0002b858                event_log_update_type
                0x0002b8d4                event_log_move_oldest_address
                0x0002b970                event_log_increment_oldest_address
                0x0002ba14                event_log_get_next_empty_address
                0x0002bda4                event_log_get_next_empty_entry
                0x0002be58                print_event_log_size
 .text          0x0002bea4     0x2400 ./wlan_mac_high_framework/wlan_mac_high.o
                0x0002bea4                wlan_mac_high_userio_gpio_handler
                0x0002bf5c                wlan_mac_high_uart_rx_handler
                0x0002bfa4                wlan_mac_high_heap_init
                0x0002c074                wlan_mac_high_cpu_ddr_linker_data_init
                0x0002c110                wlan_mac_high_interrupt_init
                0x0002c2e8                wlan_mac_high_interrupt_restore_state
                0x0002c34c                wlan_mac_high_interrupt_stop
                0x0002c3ac                wlan_mac_high_get_user_io_state
                0x0002c3d4                wlan_mac_high_set_pb_u_callback
                0x0002c3e4                wlan_mac_high_set_pb_m_callback
                0x0002c3f4                wlan_mac_high_set_pb_d_callback
                0x0002c404                wlan_mac_high_set_uart_rx_callback
                0x0002c414                wlan_mac_high_set_mpdu_tx_high_done_callback
                0x0002c424                wlan_mac_high_set_mpdu_tx_low_done_callback
                0x0002c434                wlan_mac_high_set_beacon_tx_done_callback
                0x0002c444                wlan_mac_high_set_mpdu_rx_callback
                0x0002c454                wlan_mac_high_set_poll_tx_queues_callback
                0x0002c464                wlan_mac_high_set_mpdu_dequeue_callback
                0x0002c474                wlan_mac_high_set_cpu_low_reboot_callback
                0x0002c484                wlan_mac_high_display_mallinfo
                0x0002c594                wlan_mac_high_malloc
                0x0002c5f0                wlan_mac_high_calloc
                0x0002c63c                wlan_mac_high_realloc
                0x0002c698                wlan_mac_high_free
                0x0002c6cc                wlan_mac_high_memory_test
                0x0002c9c0                wlan_mac_high_right_shift_test
                0x0002ca80                wlan_mac_high_cdma_finish_transfer
                0x0002caac                wlan_mac_high_cdma_start_transfer
                0x0002cc08                wlan_mac_high_mpdu_transmit
                0x0002cd70                wlan_mac_high_valid_tagged_rate
                0x0002ce3c                wlan_mac_high_tagged_rate_to_readable_rate
                0x0002cfc8                wlan_mac_high_setup_tx_header
                0x0002cfd4                wlan_mac_high_setup_tx_frame_info
                0x0002d064                wlan_mac_high_set_srand
                0x0002d0a8                wlan_mac_high_bss_channel_spec_to_radio_chan
                0x0002d0b4                wlan_mac_high_set_radio_channel
                0x0002d12c                wlan_mac_high_config_txrx_beacon
                0x0002d160                wlan_mac_high_set_rx_ant_mode
                0x0002d1d0                wlan_mac_high_set_tx_ctrl_pow
                0x0002d214                wlan_mac_high_set_rx_filter_mode
                0x0002d258                wlan_mac_high_write_low_mem
                0x0002d2a4                wlan_mac_high_read_low_mem
                0x0002d3d4                wlan_mac_high_write_low_param
                0x0002d420                wlan_mac_high_set_dsss
                0x0002d464                wlan_mac_high_process_ipc_msg
                0x0002d9e0                wlan_mac_high_ipc_rx
                0x0002da20                wlan_mac_high_request_low_state
                0x0002da50                wlan_mac_high_init
                0x0002df48                wlan_mac_high_is_cpu_low_initialized
                0x0002df70                wlan_mac_high_is_dequeue_allowed
                0x0002dff0                wlan_mac_high_get_empty_tx_packet_buffer
                0x0002e040                wlan_mac_high_is_pkt_ltg
                0x0002e084                wlan_mac_high_configure_beacon_tx_template
                0x0002e1f4                wlan_mac_high_update_beacon_tx_params
 .text          0x0002e2a4     0x1338 ./wlan_mac_high_framework/wlan_mac_ltg.o
                0x0002e2a4                wlan_mac_ltg_sched_set_callback
                0x0002e2b4                ltg_sched_create_l
                0x0002e320                ltg_sched_stop_l
                0x0002e3b4                ltg_sched_stop_all
                0x0002e420                ltg_sched_check
                0x0002e618                ltg_sched_destroy_params
                0x0002e664                ltg_sched_destroy_l
                0x0002e6b0                ltg_sched_remove_all
                0x0002e75c                ltg_sched_start_l
                0x0002e968                ltg_sched_start_all
                0x0002ea0c                ltg_sched_create
                0x0002ec8c                ltg_sched_find_tg_schedule
                0x0002eccc                ltg_sched_remove
                0x0002ed78                wlan_mac_ltg_sched_init
                0x0002ede8                ltg_sched_get_callback_arg
                0x0002ee28                ltg_sched_get_params
                0x0002ee68                ltg_sched_get_state
                0x0002ef48                ltg_sched_stop
                0x0002efb4                ltg_sched_start
                0x0002f020                wlan_create_ltg_frame
                0x0002f0a8                ltg_sched_deserialize
                0x0002f350                ltg_payload_deserialize
 .text          0x0002f5dc      0xd5c ./wlan_mac_high_framework/wlan_mac_packet_types.o
                0x0002f5dc                wlan_create_beacon_probe_resp_frame
                0x0002f9e0                wlan_create_probe_req_frame
                0x0002fb70                wlan_create_auth_frame
                0x0002fc34                wlan_create_deauth_disassoc_frame
                0x0002fcec                wlan_create_reassoc_assoc_req_frame
                0x0002ffe4                wlan_create_association_response_frame
                0x00030178                wlan_create_data_frame
                0x00030230                wlan_create_rts_frame
                0x000302a8                wlan_create_cts_frame
                0x000302f0                wlan_create_ack_frame
 .text          0x00030338      0x5ac ./wlan_mac_high_framework/wlan_mac_queue.o
                0x00030338                queue_init
                0x00030458                queue_total_size
                0x00030468                queue_num_free
                0x00030478                queue_num_queued
                0x000304a8                enqueue_after_tail
                0x000305f8                dequeue_from_head
                0x00030690                queue_checkout
                0x000306e8                queue_checkin
                0x00030718                purge_queue
                0x000307e4                queue_checkout_list
                0x00030814                queue_checkin_list
                0x0003083c                dequeue_transmit_checkin
                0x000308d4                queue_set_state_change_callback
 .text          0x000308e4      0x52c ./wlan_mac_high_framework/wlan_mac_scan.o
                0x000308e4                wlan_mac_scan_state_transition
                0x00030a00                wlan_mac_scan_init
                0x00030b7c                wlan_mac_scan_set_tx_probe_request_callback
                0x00030b8c                wlan_mac_scan_set_state_change_callback
                0x00030b9c                wlan_mac_scan_get_parameters
                0x00030bac                wlan_mac_scan_start
                0x00030c04                wlan_mac_scan_stop
                0x00030cd8                wlan_mac_scan_pause
                0x00030d94                wlan_mac_scan_resume
                0x00030ddc                wlan_mac_scan_is_scanning
                0x00030e00                wlan_mac_scan_get_num_scans
 .text          0x00030e10      0x974 ./wlan_mac_high_framework/wlan_mac_schedule.o
                0x00030e10                timer_interrupt_handler
                0x00030eb4                wlan_mac_schedule_init
                0x00030ffc                wlan_mac_schedule_setup_interrupt
                0x00031050                wlan_mac_schedule_enable
                0x00031168                wlan_mac_schedule_find
                0x000311a8                wlan_mac_remove_schedule
                0x00031308                schedule_handler
                0x000314a0                wlan_mac_schedule_disable_id
                0x0003156c                wlan_mac_schedule_event_repeated
 .text          0x00031784     0x1140 ./wlan_mac_high_framework/wlan_mac_station_info.o
                0x00031784                station_info_init
                0x00031864                station_info_init_finish
                0x00031898                station_info_rx_process_counts
                0x00031948                station_info_print
                0x00031c00                station_info_reset_all_counts_txrx
                0x00031c80                station_info_checkout
                0x00031cc8                station_info_checkin
                0x00031cf4                station_info_find_by_id
                0x00031d6c                station_info_find_by_addr
                0x00031de8                station_info_find_oldest
                0x00031e28                station_info_clear_txrx_counts
                0x00031e4c                txrx_counts_zero_all
                0x00031ea8                station_info_clear
                0x00031ee4                station_info_reset_all
                0x00031f74                station_info_create
                0x00032098                station_info_timestamp_check
                0x00032144                station_info_rx_process
                0x000322c4                station_info_tx_process
                0x000324bc                station_info_get_list
                0x000324cc                wlan_mac_high_find_station_info_ID
                0x00032504                station_info_remove
                0x00032570                station_info_is_member
                0x000325ac                station_info_update_rate
                0x00032604                station_info_add

.text           0x00000050    0x1d72c
 *(.text)
 .text          0x00000050       0x34 c:/xilinx/14.4/ise_ds/edk/gnu/microblaze/nt64/bin/../lib/gcc/microblaze-xilinx-elf/4.6.2/../../../../microblaze-xilinx-elf/lib/bs/m/le/crt0.o
                0x00000050                _start1
                0x00000080                _exit
 .text          0x00000084        0x0 c:/xilinx/14.4/ise_ds/edk/gnu/microblaze/nt64/bin/../lib/gcc/microblaze-xilinx-elf/4.6.2/bs/m/le/crti.o
 .text          0x00000084      0x118 c:/xilinx/14.4/ise_ds/edk/gnu/microblaze/nt64/bin/../lib/gcc/microblaze-xilinx-elf/4.6.2/bs/m/le/crtbegin.o
 .text          0x0000019c       0xb0 c:/xilinx/14.4/ise_ds/edk/gnu/microblaze/nt64/bin/../lib/gcc/microblaze-xilinx-elf/4.6.2/../../../../microblaze-xilinx-elf/lib/bs/m/le/crtinit.o
                0x0000019c                _crtinit
 .text          0x0000024c      0x174 ./wlan_mac_common/wlan_mac_common.o
                0x0000024c                wlan_null_callback
                0x00000254                wlan_verify_channel
                0x0000027c                cpu_error_halt
                0x000002e0                init_mac_hw_info
                0x00000390                get_mac_hw_info
                0x000003a0                get_mac_hw_addr_wlan
                0x000003b0                get_mac_hw_addr_wlan_exp
 .text          0x000003c0      0x3b0 ./wlan_mac_common/wlan_mac_mailbox_util.o
                0x000003c0                mailbox_int_handler
                0x00000444                init_mailbox
                0x00000490                setup_mailbox_interrupt
                0x00000538                set_mailbox_rx_callback
                0x00000548                write_mailbox_msg
                0x000005f8                send_msg
                0x00000628                ipc_mailbox_read_isempty
                0x00000650                read_mailbox_msg
 .text          0x00000770      0x328 ./wlan_mac_common/wlan_mac_pkt_buf_util.o
                0x00000770                lock_tx_pkt_buf
                0x000007bc                lock_rx_pkt_buf
                0x00000808                unlock_tx_pkt_buf
                0x00000878                force_lock_tx_pkt_buf
                0x000008d4                unlock_rx_pkt_buf
                0x00000920                force_lock_rx_pkt_buf
                0x00000980                init_pkt_buf
                0x00000a00                get_tx_pkt_buf_status
                0x00000a4c                get_rx_pkt_buf_status
 .text          0x00000a98       0xcc ./wlan_mac_common/wlan_mac_sysmon_util.o
                0x00000a98                init_sysmon
                0x00000b34                get_current_temp
                0x00000b44                get_min_temp
                0x00000b54                get_max_temp
 .text          0x00000b64      0x1ac ./wlan_mac_common/wlan_mac_time_util.o
                0x00000b64                get_mac_time_usec
                0x00000bbc                get_system_time_usec
                0x00000c14                set_mac_time_usec
                0x00000c60                apply_mac_time_delta_usec
                0x00000cb0                usleep
 .text          0x00000d10      0x4a0 ./wlan_mac_common/wlan_mac_userio_util.o
                0x00000d10                hex_to_seven_segment
                0x00000d30                enable_hex_pwm
                0x00000d50                disable_hex_pwm
                0x00000d70                set_hex_pwm_period
                0x00000d98                set_hex_pwm_min_max
                0x00000de8                write_hex_display
                0x00000ed4                write_hex_display_with_pwm
                0x00000fe8                set_hex_display_error_status
                0x00001038                blink_hex_display
                0x00001160                set_hex_display_right_dp
                0x00001188                set_hex_display_left_dp
 .text          0x000011b0      0xd24 ./src/wlan_exp_node_ap.o
                0x000011b0                wlan_exp_process_node_cmd
 .text          0x00001ed4     0x2470 ./src/wlan_mac_ap.o
                0x00001ed4                up_button
                0x00001edc                active_bss_info_getter
                0x00001eec                purge_all_data_tx_queue
                0x00001f6c                handle_cpu_low_reboot
                0x00001fa0                configure_bss
                0x000025c8                mpdu_dequeue
                0x00002650                ethernet_receive
                0x00002834                ltg_event
                0x00002adc                poll_tx_queues
                0x00002cf8                beacon_transmit_done
                0x00002d48                send_probe_req
                0x00002e1c                wlan_exp_process_user_cmd
                0x00002e80                process_scan_state_change
                0x00002ef4                update_tim_tag_all
                0x000031dc                mpdu_rx_process
                0x00003d70                set_power_save_configuration
                0x00003de8                get_power_save_configuration
                0x00003df8                update_tim_tag_aid
                0x00003f64                queue_state_change
                0x00003fd8                deauthenticate_station
                0x00004144                remove_inactive_station_infos
                0x0000427c                deauthenticate_all_stations
                0x000042fc                get_bss_member_list
                0x00004314                get_wlan_mac_addr
                0x00004324                ap_update_hex_display
 .text          0x00004344      0xce8 ./src/wlan_mac_ap_uart_menu.o
                0x00004344                scan_traffic
                0x0000437c                chan_util
                0x00004400                print_station_status
                0x00004594                print_main_menu
                0x00004698                print_queue_status
                0x000047b8                stop_periodic_print
                0x000047f8                start_periodic_print
                0x00004854                stop_periodic_util
                0x00004894                start_periodic_util
                0x00004910                stop_periodic_channel_sweep
                0x00004988                start_periodic_channel_sweep
                0x000049e4                uart_rx
 .text          0x0000502c     0x1650 ./src/wlan_mac_chan_util.o
                0x0000502c                wlan_mac_high_init_mpdu_info
                0x00005034                wlan_mac_high_init_chan_info
                0x00005090                wlan_mac_high_init_chan_data
                0x000050c8                wlan_mac_high_init_chan_util
                0x00005134                wlan_mac_high_init_chan_state
                0x0000514c                wlan_mac_high_reset_chan_info
                0x00005180                wlan_mac_high_refresh_chan_info
                0x000051c8                wlan_calc_num_payload_syms
                0x0000524c                wlan_calc_ofdm_mpdu_txtime
                0x000052b8                wlan_calc_dsss_mpdu_txtime
                0x000052e8                set_mac_chan_state
                0x00005350                is_known_mac
                0x000053d8                set_mac_chan_info
                0x00005568                copy_user_entry
                0x000055f8                remove_user_at_index
                0x000056f4                remove_inactive_users
                0x00005774                get_tot_mpdu
                0x0000578c                sort_users
                0x000059a0                get_avg_mpdu
                0x000059fc                get_avg_duration
                0x00005a58                print_chan_data
                0x00005b68                print_chan_util
                0x00005f68                get_mac_chan_util
                0x00006064                get_mac_channel_index
                0x000060a0                get_channel_band
                0x000060e8                wlan_add_mac_timing_param
                0x0000617c                extract_mpdu_info
                0x0000640c                set_mac_chan_data
                0x00006468                capture_mpdu
                0x00006510                wlan_mac_high_refresh_chan_data
                0x00006544                scan_traffic_sweep
 .text          0x0000667c      0x604 ../../wlan_bsp_cpu_high/mb_high/lib\libxil.a(xil_printf.o)
                0x00006868                xil_printf
 .text          0x00006c80        0x8 ../../wlan_bsp_cpu_high/mb_high/lib\libxil.a(_exception_handler.o)
                0x00006c80                _exception_handler
 .text          0x00006c88        0x8 ../../wlan_bsp_cpu_high/mb_high/lib\libxil.a(_program_clean.o)
                0x00006c88                _program_clean
 .text          0x00006c90        0x8 ../../wlan_bsp_cpu_high/mb_high/lib\libxil.a(_program_init.o)
                0x00006c90                _program_init
 *fill*         0x00006c98        0x8 00
 .text          0x00006ca0      0x480 ../../wlan_bsp_cpu_high/mb_high/lib\libxil.a(hw_exception_handler.o)
                0x00006ca0                _hw_exception_handler
 .text          0x00007120       0xb8 ../../wlan_bsp_cpu_high/mb_high/lib\libxil.a(microblaze_interrupt_handler.o)
                0x00007120                _interrupt_handler
                0x00007120                __interrupt_handler
                0x000071c4                microblaze_register_handler
 .text          0x000071d8        0x0 ../../wlan_bsp_cpu_high/mb_high/lib\libxil.a(microblaze_interrupts_g.o)
 .text          0x000071d8       0x2c ../../wlan_bsp_cpu_high/mb_high/lib\libxil.a(outbyte.o)
                0x000071d8                outbyte
 .text          0x00007204       0xe8 ../../wlan_bsp_cpu_high/mb_high/lib\libxil.a(xil_exception.o)
                0x0000720c                Xil_ExceptionInit
                0x00007214                Xil_ExceptionEnable
                0x00007240                Xil_ExceptionDisable
                0x0000726c                Xil_ExceptionRegisterHandler
                0x000072a4                Xil_ExceptionRemoveHandler
 .text          0x000072ec      0x118 ../../wlan_bsp_cpu_high/mb_high/lib\libxil.a(xil_io.o)
                0x000072ec                Xil_EndianSwap16
                0x00007308                Xil_EndianSwap32
                0x00007340                Xil_In16BE
                0x00007368                Xil_In32BE
                0x000073a4                Xil_Out16BE
                0x000073c4                Xil_Out32BE
 .text          0x00007404      0x190 ../../wlan_bsp_cpu_high/mb_high/lib\libxil.a(WARP_ip_udp_init.o)
                0x00007404                eth_init_global_structures
                0x00007488                socket_init_sockets
                0x000074d4                arp_init_cache
                0x00007518                warp_ip_udp_init
 .text          0x00007594     0x1734 ../../wlan_bsp_cpu_high/mb_high/lib\libxil.a(WARP_ip_udp_eth.o)
                0x00007594                eth_null_interrupt_callback
                0x0000759c                eth_set_interrupt_enable_callback
                0x000075ac                eth_set_interrupt_disable_callback
                0x000075bc                eth_get_num_tx_descriptors
                0x000075c4                eth_init_header
                0x000075f0                eth_update_header
                0x00007644                eth_not_in_memory_range
                0x000076ac                eth_print_err_msg
                0x000077f4                eth_check_dma
                0x000078ec                eth_check_device
                0x0000797c                eth_get_ip_addr
                0x000079e4                eth_set_ip_addr
                0x00007a48                eth_get_hw_addr
                0x00007ab0                eth_set_hw_addr
                0x00007b14                eth_set_mac_operating_speed
                0x00007b70                eth_write_phy_reg
                0x00007bec                eth_read_phy_reg
                0x00007c68                eth_free_recv_buffers
                0x00007dbc                eth_recv_frame
                0x00007ff0                eth_process_tx_descriptors
                0x00008128                eth_start_device
                0x000081c4                eth_init_device
                0x000082c8                eth_init_dma
                0x000085ac                eth_init
                0x00008748                eth_send_frame
 .text          0x00008cc8      0xd1c ../../wlan_bsp_cpu_high/mb_high/lib\libxil.a(WARP_ip_udp_ip_udp.o)
                0x00008cc8                ipv4_init
                0x00008cd8                ipv4_init_header
                0x00008d20                ipv4_compute_checksum
                0x00008d84                ipv4_update_header
                0x00008e1c                udp_process_packet
                0x00008e8c                udp_init_header
                0x00008ebc                udp_update_header
                0x00008ef4                arp_reply
                0x000090cc                arp_request
                0x0000928c                arp_send_announcement
                0x000092cc                arp_get_hw_addr
                0x000093a8                arp_update_cache
                0x0000950c                arp_process_packet
                0x00009604                imcp_echo_reply
                0x00009854                imcp_process_packet
                0x00009894                ipv4_process_packet
 .text          0x000099e4      0x6f0 ../../wlan_bsp_cpu_high/mb_high/lib\libxil.a(WARP_ip_udp_socket.o)
                0x000099e4                socket_socket
                0x00009a54                socket_bind_eth
                0x00009b4c                socket_close
                0x00009b88                socket_sendto
                0x00009ce4                socket_sendto_raw
                0x00009d48                socket_recvfrom_eth
                0x00009e6c                socket_alloc_send_buffer
                0x00009f10                socket_free_send_buffer
                0x00009f34                socket_free_recv_buffer
                0x00009f88                socket_find_index_by_eth
                0x00009fe4                socket_get_eth_dev_num
                0x0000a01c                socket_get_warp_ip_udp_header
                0x0000a050                socket_alloc_socket
                0x0000a090                socket_get_socket
                0x0000a0c4                socket_check_socket
 .text          0x0000a0d4      0x570 ../../wlan_bsp_cpu_high/mb_high/lib\libxil.a(xaxicdma.o)
                0x0000a0d4                XAxiCdma_GetError
                0x0000a0e4                XAxiCdma_Reset
                0x0000a10c                XAxiCdma_ResetIsDone
                0x0000a124                XAxiCdma_CfgInitialize
                0x0000a204                XAxiCdma_IsBusy
                0x0000a21c                XAxiCdma_IsSimpleMode
                0x0000a234                XAxiCdma_SwitchMode
                0x0000a340                XAxiCdma_SimpleTransfer
                0x0000a49c                XAxiCdma_SetCoalesce
                0x0000a530                XAxiCdma_GetCoalesce
                0x0000a568                XAxiCdma_DumpRegisters
 .text          0x0000a644      0xab8 ../../wlan_bsp_cpu_high/mb_high/lib\libxil.a(xaxicdma_bdring.o)
                0x0000a644                XAxiCdma_BdRingCntCalc
                0x0000a680                XAxiCdma_BdRingMemCalc
                0x0000a694                XAxiCdma_BdRingGetCnt
                0x0000a69c                XAxiCdma_BdRingGetFreeCnt
                0x0000a6a4                XAxiCdma_BdRingSnapShotCurrBd
                0x0000a6f4                XAxiCdma_BdRingGetCurrBd
                0x0000a704                XAxiCdma_BdRingNext
                0x0000a74c                XAxiCdma_BdRingPrev
                0x0000a794                XAxiCdma_BdRingCreate
                0x0000a9d8                XAxiCdma_BdRingClone
                0x0000aaa0                XAxiCdma_BdRingAlloc
                0x0000ab08                XAxiCdma_BdRingUnAlloc
                0x0000ab90                XAxiCdma_BdRingToHw
                0x0000ae10                XAxiCdma_BdRingFromHw
                0x0000af68                XAxiCdma_BdRingFree
                0x0000b048                XAxiCdma_BdRingStartTransfer
 .text          0x0000b0fc      0x194 ../../wlan_bsp_cpu_high/mb_high/lib\libxil.a(xaxicdma_intr.o)
                0x0000b0fc                XAxiCdma_IntrEnable
                0x0000b118                XAxiCdma_IntrGetEnabled
                0x0000b128                XAxiCdma_IntrDisable
                0x0000b148                XAxiCdma_IntrHandler
 .text          0x0000b290       0x24 ../../wlan_bsp_cpu_high/mb_high/lib\libxil.a(xaxicdma_sinit.o)
                0x0000b290                XAxiCdma_LookupConfig
 .text          0x0000b2b4      0x758 ../../wlan_bsp_cpu_high/mb_high/lib\libxil.a(xaxidma.o)
                0x0000b2b4                XAxiDma_Reset
                0x0000b3c4                XAxiDma_ResetIsDone
                0x0000b408                XAxiDma_CfgInitialize
                0x0000b5e8                XAxiDma_Pause
                0x0000b67c                XAxiDma_Resume
                0x0000b890                XAxiDma_Busy
                0x0000b8b0                XAxiDma_SelectKeyHole
                0x0000b8e0                XAxiDma_SimpleTransfer
 .text          0x0000ba0c      0x280 ../../wlan_bsp_cpu_high/mb_high/lib\libxil.a(xaxidma_bd.o)
                0x0000ba0c                XAxiDma_BdSetLength
                0x0000ba40                XAxiDma_BdSetBufAddr
                0x0000baa0                XAxiDma_BdSetAppWord
                0x0000bad4                XAxiDma_BdGetAppWord
                0x0000bb0c                XAxiDma_BdSetCtrl
                0x0000bb2c                XAxiDma_DumpBd
 .text          0x0000bc8c      0xd48 ../../wlan_bsp_cpu_high/mb_high/lib\libxil.a(xaxidma_bdring.o)
                0x0000bc8c                XAxiDma_UpdateBdRingCDesc
                0x0000bd7c                XAxiDma_BdRingCreate
                0x0000bf54                XAxiDma_BdRingClone
                0x0000c02c                XAxiDma_StartBdRingHw
                0x0000c130                XAxiDma_BdRingStart
                0x0000c164                XAxiDma_BdRingSetCoalesce
                0x0000c1d0                XAxiDma_BdRingGetCoalesce
                0x0000c1f4                XAxiDma_BdRingAlloc
                0x0000c26c                XAxiDma_BdRingUnAlloc
                0x0000c310                XAxiDma_BdRingToHw
                0x0000c540                XAxiDma_BdRingFromHw
                0x0000c6c4                XAxiDma_BdRingFree
                0x0000c740                XAxiDma_BdRingCheck
                0x0000c8b0                XAxiDma_BdRingDumpRegs
 .text          0x0000c9d4       0x40 ../../wlan_bsp_cpu_high/mb_high/lib\libxil.a(xaxidma_sinit.o)
                0x0000c9d4                XAxiDma_LookupConfig
 .text          0x0000ca14     0x135c ../../wlan_bsp_cpu_high/mb_high/lib\libxil.a(xaxiethernet.o)
                0x0000caf8                XAxiEthernet_Start
                0x0000cbf4                XAxiEthernet_Stop
                0x0000ccbc                XAxiEthernet_SetMacAddress
                0x0000ce3c                XAxiEthernet_GetMacAddress
                0x0000cf70                XAxiEthernet_SetOptions
                0x0000d220                XAxiEthernet_ClearOptions
                0x0000d4c8                XAxiEthernet_GetOptions
                0x0000d564                XAxiEthernet_GetOperatingSpeed
                0x0000d648                XAxiEthernet_SetOperatingSpeed
                0x0000d7c8                XAxiEthernet_SetBadFrmRcvOption
                0x0000d7e0                XAxiEthernet_ClearBadFrmRcvOption
                0x0000d7f8                XAxiEthernet_DisableControlFrameLenCheck
                0x0000d814                XAxiEthernet_EnableControlFrameLenCheck
                0x0000d830                XAxiEthernet_PhySetMdioDivisor
                0x0000d8f8                XAxiEthernet_Reset
                0x0000da9c                XAxiEthernet_CfgInitialize
                0x0000db5c                XAxiEthernet_PhyRead
                0x0000dc68                XAxiEthernet_PhyWrite
 .text          0x0000dd70       0x40 ../../wlan_bsp_cpu_high/mb_high/lib\libxil.a(xaxiethernet_sinit.o)
                0x0000dd70                XAxiEthernet_LookupConfig
 .text          0x0000ddb0      0xc18 ../../wlan_bsp_cpu_high/mb_high/lib\libxil.a(xintc.o)
                0x0000de08                XIntc_Initialize
                0x0000df98                XIntc_Start
                0x0000e088                XIntc_Stop
                0x0000e118                XIntc_Connect
                0x0000e228                XIntc_Disconnect
                0x0000e32c                XIntc_Enable
                0x0000e408                XIntc_Disable
                0x0000e4e8                XIntc_Acknowledge
                0x0000e5bc                XIntc_LookupConfig
                0x0000e5e0                XIntc_ConnectFastHandler
                0x0000e7e4                XIntc_SetNormalIntrMode
 .text          0x0000e9c8        0x0 ../../wlan_bsp_cpu_high/mb_high/lib\libxil.a(xintc_g.o)
 .text          0x0000e9c8      0x1e8 ../../wlan_bsp_cpu_high/mb_high/lib\libxil.a(xintc_l.o)
                0x0000e9c8                XIntc_DeviceInterruptHandler
                0x0000eac0                XIntc_LowLevelInterruptHandler
                0x0000eadc                XIntc_SetIntrSvcOption
                0x0000eb04                XIntc_RegisterHandler
                0x0000eb38                XIntc_RegisterFastHandler
 .text          0x0000ebb0      0x41c ../../wlan_bsp_cpu_high/mb_high/lib\libxil.a(xgpio.o)
                0x0000ebb0                XGpio_CfgInitialize
                0x0000ec24                XGpio_SetDataDirection
                0x0000ed00                XGpio_GetDataDirection
                0x0000edf8                XGpio_DiscreteRead
                0x0000eef0                XGpio_DiscreteWrite
 .text          0x0000efcc      0x5d8 ../../wlan_bsp_cpu_high/mb_high/lib\libxil.a(xgpio_intr.o)
                0x0000efcc                XGpio_InterruptGlobalEnable
                0x0000f098                XGpio_InterruptGlobalDisable
                0x0000f15c                XGpio_InterruptEnable
                0x0000f228                XGpio_InterruptDisable
                0x0000f2f8                XGpio_InterruptClear
                0x0000f3c4                XGpio_InterruptGetEnabled
                0x0000f4b4                XGpio_InterruptGetStatus
 .text          0x0000f5a4       0xb4 ../../wlan_bsp_cpu_high/mb_high/lib\libxil.a(xgpio_sinit.o)
                0x0000f5a4                XGpio_LookupConfig
                0x0000f5c8                XGpio_Initialize
 .text          0x0000f658      0x7cc ../../wlan_bsp_cpu_high/mb_high/lib\libxil.a(xtmrctr.o)
                0x0000f658                XTmrCtr_Initialize
                0x0000f790                XTmrCtr_Start
                0x0000f880                XTmrCtr_Stop
                0x0000f95c                XTmrCtr_GetValue
                0x0000fa50                XTmrCtr_SetResetValue
                0x0000fb28                XTmrCtr_GetCaptureValue
                0x0000fc1c                XTmrCtr_Reset
                0x0000fd08                XTmrCtr_IsExpired
                0x0000fe00                XTmrCtr_LookupConfig
 .text          0x0000fe24        0x0 ../../wlan_bsp_cpu_high/mb_high/lib\libxil.a(xtmrctr_g.o)
 .text          0x0000fe24      0x1c8 ../../wlan_bsp_cpu_high/mb_high/lib\libxil.a(xtmrctr_intr.o)
                0x0000fe24                XTmrCtr_SetHandler
                0x0000fedc                XTmrCtr_InterruptHandler
 .text          0x0000ffec        0x0 ../../wlan_bsp_cpu_high/mb_high/lib\libxil.a(xtmrctr_l.o)
 .text          0x0000ffec      0x240 ../../wlan_bsp_cpu_high/mb_high/lib\libxil.a(xtmrctr_options.o)
                0x0000ffec                XTmrCtr_SetOptions
                0x0001010c                XTmrCtr_GetOptions
 .text          0x0001022c      0x5e8 ../../wlan_bsp_cpu_high/mb_high/lib\libxil.a(xuartlite.o)
                0x00010260                XUartLite_CfgInitialize
                0x000102fc                XUartLite_ResetFifos
                0x00010394                XUartLite_IsSending
                0x00010408                XUartLite_SendBuffer
                0x000104b0                XUartLite_Send
                0x000105fc                XUartLite_ReceiveBuffer
                0x000106c8                XUartLite_Recv
 .text          0x00010814      0x384 ../../wlan_bsp_cpu_high/mb_high/lib\libxil.a(xuartlite_intr.o)
                0x00010814                XUartLite_SetRecvHandler
                0x000108cc                XUartLite_SetSendHandler
                0x00010984                XUartLite_InterruptHandler
                0x00010a7c                XUartLite_DisableInterrupt
                0x00010b08                XUartLite_EnableInterrupt
 .text          0x00010b98       0x38 ../../wlan_bsp_cpu_high/mb_high/lib\libxil.a(xuartlite_l.o)
                0x00010b98                XUartLite_SendByte
                0x00010bb4                XUartLite_RecvByte
 .text          0x00010bd0       0xb0 ../../wlan_bsp_cpu_high/mb_high/lib\libxil.a(xuartlite_sinit.o)
                0x00010bd0                XUartLite_LookupConfig
                0x00010bf4                XUartLite_Initialize
 .text          0x00010c80      0x188 ../../wlan_bsp_cpu_high/mb_high/lib\libxil.a(xuartlite_stats.o)
                0x00010c80                XUartLite_GetStats
                0x00010d68                XUartLite_ClearStats
 .text          0x00010e08      0xd28 ../../wlan_bsp_cpu_high/mb_high/lib\libxil.a(xmbox.o)
                0x00010e08                XMbox_CfgInitialize
                0x00010f38                XMbox_Read
                0x00011138                XMbox_ReadBlocking
                0x0001127c                XMbox_Write
                0x00011478                XMbox_WriteBlocking
                0x000115bc                XMbox_IsEmpty
                0x00011640                XMbox_IsFull
                0x000116c4                XMbox_Flush
                0x00011758                XMbox_SetInterruptEnable
                0x000117dc                XMbox_GetInterruptEnable
                0x00011874                XMbox_GetInterruptStatus
                0x0001190c                XMbox_ClearInterrupt
                0x00011990                XMbox_SetSendThreshold
                0x00011a14                XMbox_SetReceiveThreshold
                0x00011a98                XMbox_GetStatus
 .text          0x00011b30       0x24 ../../wlan_bsp_cpu_high/mb_high/lib\libxil.a(xmbox_sinit.o)
                0x00011b30                XMbox_LookupConfig
 .text          0x00011b54      0x6ec ../../wlan_bsp_cpu_high/mb_high/lib\libxil.a(xmutex.o)
                0x00011b54                XMutex_CfgInitialize
                0x00011ca4                XMutex_Lock
                0x00011d4c                XMutex_Trylock
                0x00011e18                XMutex_Unlock
                0x00011ee4                XMutex_IsLocked
                0x00011f88                XMutex_GetStatus
                0x00012080                XMutex_GetUser
                0x0001217c                XMutex_SetUser
 .text          0x00012240       0x24 ../../wlan_bsp_cpu_high/mb_high/lib\libxil.a(xmutex_sinit.o)
                0x00012240                XMutex_LookupConfig
 .text          0x00012264      0x9c0 ../../wlan_bsp_cpu_high/mb_high/lib\libxil.a(w3_iic_eeprom.o)
                0x00012264                iic_eeprom_trylock
                0x0001227c                iic_eeprom_unlock
                0x00012288                w3_eeprom_read_serial_num
                0x000122cc                w3_eeprom_read_eth_addr
                0x00012368                w3_eeprom_read_fpga_dna
                0x000123c0                iic_eeprom_write_byte_internal
                0x00012568                iic_eeprom_write_byte
                0x000125cc                iic_eeprom_read_byte_internal
                0x00012730                iic_eeprom_read_fpga_dna
                0x00012828                iic_eeprom_read_eth_addr
                0x000129bc                iic_eeprom_read_serial_num
                0x00012a24                iic_eeprom_init
                0x00012b9c                iic_eeprom_read_byte
                0x00012c00                iic_eeprom_wait_for_rx_ack
 .text          0x00012c24       0x54 ../../wlan_bsp_cpu_high/mb_high/lib\libxil.a(print.o)
                0x00012c24                print
 .text          0x00012c78       0x50 ../../wlan_bsp_cpu_high/mb_high/lib\libxil.a(xbasic_types.o)
                0x00012c78                XAssert
                0x00012cb0                XAssertSetCallback
                0x00012cc0                XNullHandler
 .text          0x00012cc8       0x14 ../../wlan_bsp_cpu_high/mb_high/lib\libxil.a(microblaze_disable_exceptions.o)
                0x00012cc8                microblaze_disable_exceptions
 .text          0x00012cdc       0x20 ../../wlan_bsp_cpu_high/mb_high/lib\libxil.a(microblaze_disable_interrupts.o)
                0x00012cdc                microblaze_disable_interrupts
 .text          0x00012cfc       0x14 ../../wlan_bsp_cpu_high/mb_high/lib\libxil.a(microblaze_enable_exceptions.o)
                0x00012cfc                microblaze_enable_exceptions
 .text          0x00012d10       0x20 ../../wlan_bsp_cpu_high/mb_high/lib\libxil.a(microblaze_enable_interrupts.o)
                0x00012d10                microblaze_enable_interrupts
 .text          0x00012d30       0x30 ../../wlan_bsp_cpu_high/mb_high/lib\libxil.a(microblaze_invalidate_dcache_range.o)
                0x00012d30                microblaze_invalidate_dcache_range
 .text          0x00012d60       0x48 ../../wlan_bsp_cpu_high/mb_high/lib\libxil.a(xil_assert.o)
                0x00012d60                Xil_Assert
                0x00012d98                Xil_AssertSetCallback
 .text          0x00012da8      0x1d0 ../../wlan_bsp_cpu_high/mb_high/lib\libxil.a(WARP_ip_udp_config.o)
                0x00012da8                eth_init_device_info
 .text          0x00012f78      0x2fc ../../wlan_bsp_cpu_high/mb_high/lib\libxil.a(xaxicdma_bd.o)
                0x00012f78                XAxiCdma_BdClear
                0x00012fa0                XAxiCdma_BdClone
                0x0001306c                XAxiCdma_BdGetNextPtr
                0x00013074                XAxiCdma_BdSetNextPtr
                0x0001307c                XAxiCdma_BdGetSts
                0x00013090                XAxiCdma_BdClearSts
                0x00013098                XAxiCdma_BdSetSrcBufAddr
                0x000130c8                XAxiCdma_BdGetSrcBufAddr
                0x000130d0                XAxiCdma_BdSetDstBufAddr
                0x00013100                XAxiCdma_BdGetDstBufAddr
                0x00013108                XAxiCdma_BdSetLength
                0x00013134                XAxiCdma_BdGetLength
                0x0001313c                XAxiCdma_BdSetPhysAddr
                0x00013144                XAxiCdma_BdSetIsLite
                0x0001314c                XAxiCdma_BdSetHasDRE
                0x00013154                XAxiCdma_BdSetWordLen
                0x0001315c                XAxiCdma_BdSetMaxLen
                0x00013164                XAxiCdma_BdGetPhysAddr
                0x0001316c                XAxiCdma_DumpBd
 .text          0x00013274        0x0 ../../wlan_bsp_cpu_high/mb_high/lib\libxil.a(xaxicdma_g.o)
 .text          0x00013274        0x0 ../../wlan_bsp_cpu_high/mb_high/lib\libxil.a(xaxidma_g.o)
 .text          0x00013274        0x0 ../../wlan_bsp_cpu_high/mb_high/lib\libxil.a(xaxiethernet_g.o)
 .text          0x00013274        0x0 ../../wlan_bsp_cpu_high/mb_high/lib\libxil.a(xgpio_g.o)
 .text          0x00013274        0x0 ../../wlan_bsp_cpu_high/mb_high/lib\libxil.a(xuartlite_g.o)
 .text          0x00013274        0x0 ../../wlan_bsp_cpu_high/mb_high/lib\libxil.a(xmbox_g.o)
 .text          0x00013274        0x0 ../../wlan_bsp_cpu_high/mb_high/lib\libxil.a(xmutex_g.o)
 .text          0x00013274       0x88 c:/xilinx/14.4/ise_ds/edk/gnu/microblaze/nt64/bin/../lib/gcc/microblaze-xilinx-elf/4.6.2/bs/m/le\libgcc.a(_fixunssfsi.o)
                0x00013274                __fixunssfsi
 .text          0x000132fc       0xf4 c:/xilinx/14.4/ise_ds/edk/gnu/microblaze/nt64/bin/../lib/gcc/microblaze-xilinx-elf/4.6.2/bs/m/le\libgcc.a(_floatundisf.o)
                0x000132fc                __floatundisf
 .text          0x000133f0      0x6d8 c:/xilinx/14.4/ise_ds/edk/gnu/microblaze/nt64/bin/../lib/gcc/microblaze-xilinx-elf/4.6.2/bs/m/le\libgcc.a(_udivdi3.o)
                0x000133f0                __udivdi3
 .text          0x00013ac8      0x2e8 c:/xilinx/14.4/ise_ds/edk/gnu/microblaze/nt64/bin/../lib/gcc/microblaze-xilinx-elf/4.6.2/bs/m/le\libgcc.a(_addsub_sf.o)
                0x00013cf4                __addsf3
                0x00013d4c                __subsf3
 .text          0x00013db0      0x200 c:/xilinx/14.4/ise_ds/edk/gnu/microblaze/nt64/bin/../lib/gcc/microblaze-xilinx-elf/4.6.2/bs/m/le\libgcc.a(_mul_sf.o)
                0x00013db0                __mulsf3
 .text          0x00013fb0      0x18c c:/xilinx/14.4/ise_ds/edk/gnu/microblaze/nt64/bin/../lib/gcc/microblaze-xilinx-elf/4.6.2/bs/m/le\libgcc.a(_div_sf.o)
                0x00013fb0                __divsf3
 .text          0x0001413c       0x6c c:/xilinx/14.4/ise_ds/edk/gnu/microblaze/nt64/bin/../lib/gcc/microblaze-xilinx-elf/4.6.2/bs/m/le\libgcc.a(_ge_sf.o)
                0x0001413c                __gesf2
 .text          0x000141a8       0xb0 c:/xilinx/14.4/ise_ds/edk/gnu/microblaze/nt64/bin/../lib/gcc/microblaze-xilinx-elf/4.6.2/bs/m/le\libgcc.a(_sf_to_si.o)
                0x000141a8                __fixsfsi
 .text          0x00014258        0x0 c:/xilinx/14.4/ise_ds/edk/gnu/microblaze/nt64/bin/../lib/gcc/microblaze-xilinx-elf/4.6.2/bs/m/le\libgcc.a(_thenan_sf.o)
 .text          0x00014258       0xe8 c:/xilinx/14.4/ise_ds/edk/gnu/microblaze/nt64/bin/../lib/gcc/microblaze-xilinx-elf/4.6.2/bs/m/le\libgcc.a(_usi_to_sf.o)
                0x00014258                __floatunsisf
 .text          0x00014340      0x51c c:/xilinx/14.4/ise_ds/edk/gnu/microblaze/nt64/bin/../lib/gcc/microblaze-xilinx-elf/4.6.2/bs/m/le\libgcc.a(_addsub_df.o)
                0x00014770                __adddf3
                0x000147e0                __subdf3
 .text          0x0001485c      0x41c c:/xilinx/14.4/ise_ds/edk/gnu/microblaze/nt64/bin/../lib/gcc/microblaze-xilinx-elf/4.6.2/bs/m/le\libgcc.a(_mul_df.o)
                0x0001485c                __muldf3
 .text          0x00014c78       0x7c c:/xilinx/14.4/ise_ds/edk/gnu/microblaze/nt64/bin/../lib/gcc/microblaze-xilinx-elf/4.6.2/bs/m/le\libgcc.a(_df_to_sf.o)
                0x00014c78                __truncdfsf2
 .text          0x00014cf4        0x0 c:/xilinx/14.4/ise_ds/edk/gnu/microblaze/nt64/bin/../lib/gcc/microblaze-xilinx-elf/4.6.2/bs/m/le\libgcc.a(_thenan_df.o)
 .text          0x00014cf4      0x188 c:/xilinx/14.4/ise_ds/edk/gnu/microblaze/nt64/bin/../lib/gcc/microblaze-xilinx-elf/4.6.2/bs/m/le\libgcc.a(_usi_to_df.o)
                0x00014cf4                __floatunsidf
 .text          0x00014e7c       0x9c c:/xilinx/14.4/ise_ds/edk/gnu/microblaze/nt64/bin/../lib/gcc/microblaze-xilinx-elf/4.6.2/bs/m/le\libgcc.a(modsi3.o)
                0x00014e7c                __modsi3
 .text          0x00014f18       0xa8 c:/xilinx/14.4/ise_ds/edk/gnu/microblaze/nt64/bin/../lib/gcc/microblaze-xilinx-elf/4.6.2/bs/m/le\libgcc.a(udivsi3.o)
                0x00014f18                __udivsi3
 .text          0x00014fc0       0xbc c:/xilinx/14.4/ise_ds/edk/gnu/microblaze/nt64/bin/../lib/gcc/microblaze-xilinx-elf/4.6.2/bs/m/le\libgcc.a(umodsi3.o)
                0x00014fc0                __umodsi3
 .text          0x0001507c       0x70 c:/xilinx/14.4/ise_ds/edk/gnu/microblaze/nt64/bin/../lib/gcc/microblaze-xilinx-elf/4.6.2/bs/m/le\libgcc.a(_muldi3.o)
                0x0001507c                __muldi3
 .text          0x000150ec        0x0 c:/xilinx/14.4/ise_ds/edk/gnu/microblaze/nt64/bin/../lib/gcc/microblaze-xilinx-elf/4.6.2/bs/m/le\libgcc.a(_clz.o)
 .text          0x000150ec       0x9c c:/xilinx/14.4/ise_ds/edk/gnu/microblaze/nt64/bin/../lib/gcc/microblaze-xilinx-elf/4.6.2/bs/m/le\libgcc.a(_clzsi2.o)
                0x000150ec                __clzsi2
 .text          0x00015188      0x184 c:/xilinx/14.4/ise_ds/edk/gnu/microblaze/nt64/bin/../lib/gcc/microblaze-xilinx-elf/4.6.2/bs/m/le\libgcc.a(_pack_sf.o)
                0x00015188                __pack_f
 .text          0x0001530c       0xc0 c:/xilinx/14.4/ise_ds/edk/gnu/microblaze/nt64/bin/../lib/gcc/microblaze-xilinx-elf/4.6.2/bs/m/le\libgcc.a(_unpack_sf.o)
                0x0001530c                __unpack_f
 .text          0x000153cc      0x100 c:/xilinx/14.4/ise_ds/edk/gnu/microblaze/nt64/bin/../lib/gcc/microblaze-xilinx-elf/4.6.2/bs/m/le\libgcc.a(_fpcmp_parts_sf.o)
                0x000153cc                __fpcmp_parts_f
 .text          0x000154cc       0x30 c:/xilinx/14.4/ise_ds/edk/gnu/microblaze/nt64/bin/../lib/gcc/microblaze-xilinx-elf/4.6.2/bs/m/le\libgcc.a(_make_sf.o)
                0x000154cc                __make_fp
 .text          0x000154fc      0x308 c:/xilinx/14.4/ise_ds/edk/gnu/microblaze/nt64/bin/../lib/gcc/microblaze-xilinx-elf/4.6.2/bs/m/le\libgcc.a(_pack_df.o)
                0x000154fc                __pack_d
 .text          0x00015804      0x130 c:/xilinx/14.4/ise_ds/edk/gnu/microblaze/nt64/bin/../lib/gcc/microblaze-xilinx-elf/4.6.2/bs/m/le\libgcc.a(_unpack_df.o)
                0x00015804                __unpack_d
 .text          0x00015934       0x48 c:/xilinx/14.4/ise_ds/edk/gnu/microblaze/nt64/bin/../lib/gcc/microblaze-xilinx-elf/4.6.2/bs/m/le\libgcc.a(_lshrdi3.o)
                0x00015934                __lshrdi3
 .text          0x0001597c       0x48 c:/xilinx/14.4/ise_ds/edk/gnu/microblaze/nt64/bin/../lib/gcc/microblaze-xilinx-elf/4.6.2/bs/m/le\libgcc.a(_ashldi3.o)
                0x0001597c                __ashldi3
 .text          0x000159c4        0x0 ../../wlan_bsp_cpu_high/mb_high/lib\libc.a(lib_a-ctype_.o)
 .text          0x000159c4       0x40 ../../wlan_bsp_cpu_high/mb_high/lib\libc.a(lib_a-exit.o)
                0x000159c4                exit
 .text          0x00015a04        0x0 ../../wlan_bsp_cpu_high/mb_high/lib\libc.a(lib_a-impure.o)
 .text          0x00015a04       0x58 ../../wlan_bsp_cpu_high/mb_high/lib\libc.a(lib_a-malloc.o)
                0x00015a04                malloc
                0x00015a30                free
 .text          0x00015a5c      0x8b0 ../../wlan_bsp_cpu_high/mb_high/lib\libc.a(lib_a-mallocr.o)
                0x00015a5c                _malloc_r
 .text          0x0001630c       0xa0 ../../wlan_bsp_cpu_high/mb_high/lib\libc.a(lib_a-memcmp.o)
                0x0001630c                memcmp
 .text          0x000163ac      0x1bc ../../wlan_bsp_cpu_high/mb_high/lib\libc.a(lib_a-memcpy.o)
                0x000163ac                memcpy
 .text          0x00016568      0x20c ../../wlan_bsp_cpu_high/mb_high/lib\libc.a(lib_a-memmove.o)
                0x00016568                memmove
 .text          0x00016774      0x1e4 ../../wlan_bsp_cpu_high/mb_high/lib\libc.a(lib_a-memset.o)
                0x00016774                memset
 .text          0x00016958       0x10 ../../wlan_bsp_cpu_high/mb_high/lib\libc.a(lib_a-mlock.o)
                0x00016958                __malloc_lock
                0x00016960                __malloc_unlock
 .text          0x00016968      0x154 ../../wlan_bsp_cpu_high/mb_high/lib\libc.a(lib_a-mstats.o)
                0x00016968                mallinfo
                0x0001699c                malloc_stats
                0x000169c4                mallopt
                0x000169f4                _mstats_r
                0x00016a54                mstats
 .text          0x00016abc      0x1dc ../../wlan_bsp_cpu_high/mb_high/lib\libc.a(lib_a-rand.o)
                0x00016abc                srand
                0x00016b7c                rand
 .text          0x00016c98       0x30 ../../wlan_bsp_cpu_high/mb_high/lib\libc.a(lib_a-realloc.o)
                0x00016c98                realloc
 .text          0x00016cc8      0x67c ../../wlan_bsp_cpu_high/mb_high/lib\libc.a(lib_a-reallocr.o)
                0x00016cc8                _realloc_r
 .text          0x00017344       0x5c ../../wlan_bsp_cpu_high/mb_high/lib\libc.a(lib_a-sbrkr.o)
                0x00017344                _sbrk_r
 .text          0x000173a0       0xb0 ../../wlan_bsp_cpu_high/mb_high/lib\libc.a(lib_a-strcmp.o)
                0x000173a0                strcmp
 .text          0x00017450       0x90 ../../wlan_bsp_cpu_high/mb_high/lib\libc.a(lib_a-strcpy.o)
                0x00017450                strcpy
 .text          0x000174e0       0x5c ../../wlan_bsp_cpu_high/mb_high/lib\libc.a(lib_a-strlen.o)
                0x000174e0                strlen
 .text          0x0001753c      0x148 ../../wlan_bsp_cpu_high/mb_high/lib\libc.a(lib_a-strncmp.o)
                0x0001753c                strncmp
 .text          0x00017684      0x150 ../../wlan_bsp_cpu_high/mb_high/lib\libc.a(lib_a-strncpy.o)
                0x00017684                strncpy
 .text          0x000177d4       0x30 ../../wlan_bsp_cpu_high/mb_high/lib\libc.a(lib_a-strndup.o)
                0x000177d4                strndup
 .text          0x00017804       0xb0 ../../wlan_bsp_cpu_high/mb_high/lib\libc.a(lib_a-strndup_r.o)
                0x00017804                _strndup_r
 .text          0x000178b4       0x50 ../../wlan_bsp_cpu_high/mb_high/lib\libc.a(lib_a-strnlen.o)
                0x000178b4                strnlen
 .text          0x00017904       0x80 ../../wlan_bsp_cpu_high/mb_high/lib\libc.a(lib_a-strrchr.o)
                0x00017904                strrchr
 .text          0x00017984      0x2e4 ../../wlan_bsp_cpu_high/mb_high/lib\libc.a(lib_a-__call_atexit.o)
                0x00017984                __call_exitprocs
 .text          0x00017c68      0x48c ../../wlan_bsp_cpu_high/mb_high/lib\libc.a(lib_a-findfp.o)
                0x00017c78                _cleanup_r
                0x00017ca0                __sfmoreglue
                0x00017d10                _cleanup
                0x00017d40                __sinit
                0x00017f24                __sfp
                0x00018074                __sfp_lock_acquire
                0x0001807c                __sfp_lock_release
                0x00018084                __sinit_lock_acquire
                0x0001808c                __sinit_lock_release
                0x00018094                __fp_lock_all
                0x000180c4                __fp_unlock_all
 .text          0x000180f4       0x78 ../../wlan_bsp_cpu_high/mb_high/lib\libc.a(lib_a-fiprintf.o)
                0x000180f4                _fiprintf_r
                0x00018124                fiprintf
 .text          0x0001816c      0x430 ../../wlan_bsp_cpu_high/mb_high/lib\libc.a(lib_a-freer.o)
                0x0001816c                _malloc_trim_r
                0x000182b8                _free_r
 .text          0x0001859c      0x190 ../../wlan_bsp_cpu_high/mb_high/lib\libc.a(lib_a-fwalk.o)
                0x0001859c                _fwalk
                0x0001865c                _fwalk_reent
 .text          0x0001872c      0x1c4 ../../wlan_bsp_cpu_high/mb_high/lib\libc.a(lib_a-mallinfor.o)
                0x0001872c                __malloc_update_mallinfo
                0x000187c4                _mallinfo_r
 .text          0x000188f0      0x12c ../../wlan_bsp_cpu_high/mb_high/lib\libc.a(lib_a-malloptr.o)
                0x000188f0                _mallopt_r
 .text          0x00018a1c       0xd4 ../../wlan_bsp_cpu_high/mb_high/lib\libc.a(lib_a-mallstatsr.o)
                0x00018a1c                _malloc_stats_r
 .text          0x00018af0      0x374 ../../wlan_bsp_cpu_high/mb_high/lib\libc.a(lib_a-reent.o)
                0x00018af0                cleanup_glue
                0x00018c3c                _reclaim_reent
                0x00018ddc                _wrapup_reent
 .text          0x00018e64      0x184 ../../wlan_bsp_cpu_high/mb_high/lib\libc.a(lib_a-stdio.o)
                0x00018e64                __sread
                0x00018ec0                __seofread
                0x00018ec8                __swrite
                0x00018f60                __sseek
                0x00018fc4                __sclose
 .text          0x00018fe8      0x1cc ../../wlan_bsp_cpu_high/mb_high/lib\libc.a(lib_a-strchr.o)
                0x00018fe8                strchr
 .text          0x000191b4     0x1c94 ../../wlan_bsp_cpu_high/mb_high/lib\libc.a(lib_a-vfiprintf.o)
                0x000191b4                __sprint_r
                0x000192b0                _vfiprintf_r
                0x0001ae14                vfiprintf
 .text          0x0001ae48       0x64 ../../wlan_bsp_cpu_high/mb_high/lib\libc.a(lib_a-writer.o)
                0x0001ae48                _write_r
 .text          0x0001aeac      0x1e4 ../../wlan_bsp_cpu_high/mb_high/lib\libc.a(lib_a-wsetup.o)
                0x0001aeac                __swsetup_r
 .text          0x0001b090       0x5c ../../wlan_bsp_cpu_high/mb_high/lib\libc.a(lib_a-closer.o)
                0x0001b090                _close_r
 .text          0x0001b0ec      0x1ac ../../wlan_bsp_cpu_high/mb_high/lib\libc.a(lib_a-fclose.o)
                0x0001b0ec                _fclose_r
                0x0001b270                fclose
 .text          0x0001b298      0x448 ../../wlan_bsp_cpu_high/mb_high/lib\libc.a(lib_a-fflush.o)
                0x0001b298                __sflush_r
                0x0001b4fc                _fflush_r
                0x0001b5b0                fflush
 .text          0x0001b6e0      0x2b8 ../../wlan_bsp_cpu_high/mb_high/lib\libc.a(lib_a-fputwc.o)
                0x0001b87c                _fputwc_r
                0x0001b8bc                fputwc
 .text          0x0001b998      0x568 ../../wlan_bsp_cpu_high/mb_high/lib\libc.a(lib_a-fvwrite.o)
                0x0001b998                __sfvwrite_r
 .text          0x0001bf00      0x184 ../../wlan_bsp_cpu_high/mb_high/lib\libc.a(lib_a-locale.o)
                0x0001bf00                _setlocale_r
                0x0001bf94                __locale_charset
                0x0001bfa4                __locale_mb_cur_max
                0x0001bfb4                __locale_msgcharset
                0x0001bfc4                __locale_cjk_lang
                0x0001bfcc                _localeconv_r
                0x0001bfdc                setlocale
                0x0001c074                localeconv
 .text          0x0001c084       0x64 ../../wlan_bsp_cpu_high/mb_high/lib\libc.a(lib_a-lseekr.o)
                0x0001c084                _lseek_r
 .text          0x0001c0e8      0x1e4 ../../wlan_bsp_cpu_high/mb_high/lib\libc.a(lib_a-makebuf.o)
                0x0001c0e8                __smakebuf_r
 .text          0x0001c2cc       0xf8 ../../wlan_bsp_cpu_high/mb_high/lib\libc.a(lib_a-memchr.o)
                0x0001c2cc                memchr
 .text          0x0001c3c4       0x64 ../../wlan_bsp_cpu_high/mb_high/lib\libc.a(lib_a-readr.o)
                0x0001c3c4                _read_r
 .text          0x0001c428      0x208 ../../wlan_bsp_cpu_high/mb_high/lib\libc.a(lib_a-wbuf.o)
                0x0001c428                __swbuf_r
                0x0001c604                __swbuf
 .text          0x0001c630      0x198 ../../wlan_bsp_cpu_high/mb_high/lib\libc.a(lib_a-wcrtomb.o)
                0x0001c630                _wcrtomb_r
                0x0001c6e8                wcrtomb
 .text          0x0001c7c8       0x90 ../../wlan_bsp_cpu_high/mb_high/lib\libc.a(lib_a-wctomb_r.o)
                0x0001c7c8                __ascii_wctomb
                0x0001c7fc                _wctomb_r
 .text          0x0001c858       0x60 ../../wlan_bsp_cpu_high/mb_high/lib\libc.a(lib_a-fstatr.o)
                0x0001c858                _fstat_r
 .text          0x0001c8b8       0x5c ../../wlan_bsp_cpu_high/mb_high/lib\libc.a(lib_a-isattyr.o)
                0x0001c8b8                _isatty_r
 .text          0x0001c914       0x14 ../../wlan_bsp_cpu_high/mb_high/lib\libxil.a(fstat.o)
                0x0001c914                fstat
 .text          0x0001c928        0x8 ../../wlan_bsp_cpu_high/mb_high/lib\libxil.a(isatty.o)
                0x0001c928                isatty
 .text          0x0001c930       0x2c ../../wlan_bsp_cpu_high/mb_high/lib\libxil.a(lseek.o)
                0x0001c930                lseek
 .text          0x0001c95c       0x64 ../../wlan_bsp_cpu_high/mb_high/lib\libxil.a(sbrk.o)
                0x0001c95c                sbrk
 .text          0x0001c9c0       0x94 ../../wlan_bsp_cpu_high/mb_high/lib\libxil.a(write.o)
                0x0001c9c0                write
 .text          0x0001ca54       0x8c ../../wlan_bsp_cpu_high/mb_high/lib\libxil.a(read.o)
                0x0001ca54                read
 .text          0x0001cae0        0x8 ../../wlan_bsp_cpu_high/mb_high/lib\libxil.a(close.o)
                0x0001cae0                close
 .text          0x0001cae8       0x10 ../../wlan_bsp_cpu_high/mb_high/lib\libxil.a(errno.o)
                0x0001cae8                __errno
 .text          0x0001caf8       0x2c ../../wlan_bsp_cpu_high/mb_high/lib\libxil.a(inbyte.o)
                0x0001caf8                inbyte
 .text          0x0001cb24      0x69c c:/xilinx/14.4/ise_ds/edk/gnu/microblaze/nt64/bin/../lib/gcc/microblaze-xilinx-elf/4.6.2/bs/m/le\libgcc.a(_umoddi3.o)
                0x0001cb24                __umoddi3
 .text          0x0001d1c0       0x4c c:/xilinx/14.4/ise_ds/edk/gnu/microblaze/nt64/bin/../lib/gcc/microblaze-xilinx-elf/4.6.2/bs/m/le/crtend.o
 .text          0x0001d20c        0x0 c:/xilinx/14.4/ise_ds/edk/gnu/microblaze/nt64/bin/../lib/gcc/microblaze-xilinx-elf/4.6.2/bs/m/le/crtn.o
 *(.text.*)
 .text.startup  0x0001d20c      0x570 ./src/wlan_mac_ap.o
                0x0001d20c                main
 *wlan_mac_common*(.text)
 *(.gnu.linkonce.t.*)

.cpu_high_ddr_linker_data
                0xc0000000     0xb8c0
                0xc0000000                __cpu_high_ddr_linker_data_start = .
 *(.eth_data)
 .eth_data      0xc0000000      0x400 ./wlan_mac_high_framework/wlan_exp_node.o
                0xc0000000                ETH_header_buffer
 .eth_data      0xc0000400     0x47c0 ../../wlan_bsp_cpu_high/mb_high/lib\libxil.a(WARP_ip_udp_init.o)
                0xc0000400                ETH_headers
                0xc0000500                ETH_dummy_frame
                0xc0000540                ETH_send_buffer
 .eth_data      0xc0004bc0     0x6d00 ../../wlan_bsp_cpu_high/mb_high/lib\libxil.a(WARP_ip_udp_config.o)
                0xc0004bc0                ETH_1_recv_buffer
                0xc000b580                ETH_1_tx_bd_space
                0xc000b800                ETH_1_rx_bd_space
                0xc000b8c0                __cpu_high_ddr_linker_data_end = .

.init           0x0001d77c       0x3c
 *(.init)
 .init          0x0001d77c       0x18 c:/xilinx/14.4/ise_ds/edk/gnu/microblaze/nt64/bin/../lib/gcc/microblaze-xilinx-elf/4.6.2/bs/m/le/crti.o
                0x0001d77c                __init
 .init          0x0001d794        0xc c:/xilinx/14.4/ise_ds/edk/gnu/microblaze/nt64/bin/../lib/gcc/microblaze-xilinx-elf/4.6.2/bs/m/le/crtbegin.o
 .init          0x0001d7a0        0xc c:/xilinx/14.4/ise_ds/edk/gnu/microblaze/nt64/bin/../lib/gcc/microblaze-xilinx-elf/4.6.2/bs/m/le/crtend.o
 .init          0x0001d7ac        0xc c:/xilinx/14.4/ise_ds/edk/gnu/microblaze/nt64/bin/../lib/gcc/microblaze-xilinx-elf/4.6.2/bs/m/le/crtn.o

.fini           0x0001d7b8       0x20
 *(.fini)
 .fini          0x0001d7b8        0x8 c:/xilinx/14.4/ise_ds/edk/gnu/microblaze/nt64/bin/../lib/gcc/microblaze-xilinx-elf/4.6.2/bs/m/le/crti.o
                0x0001d7b8                __fini
 .fini          0x0001d7c0        0xc c:/xilinx/14.4/ise_ds/edk/gnu/microblaze/nt64/bin/../lib/gcc/microblaze-xilinx-elf/4.6.2/bs/m/le/crtbegin.o
 .fini          0x0001d7cc        0xc c:/xilinx/14.4/ise_ds/edk/gnu/microblaze/nt64/bin/../lib/gcc/microblaze-xilinx-elf/4.6.2/bs/m/le/crtn.o

.ctors          0x000328c4        0x8
                0x000328c4                __CTOR_LIST__ = .
                0x000328c4                ___CTORS_LIST___ = .
 *crtbegin.o(.ctors)
 .ctors         0x000328c4        0x4 c:/xilinx/14.4/ise_ds/edk/gnu/microblaze/nt64/bin/../lib/gcc/microblaze-xilinx-elf/4.6.2/bs/m/le/crtbegin.o
 *(EXCLUDE_FILE(*crtend.o) .ctors)
 *(SORT(.ctors.*))
 *(.ctors)
 .ctors         0x000328c8        0x4 c:/xilinx/14.4/ise_ds/edk/gnu/microblaze/nt64/bin/../lib/gcc/microblaze-xilinx-elf/4.6.2/bs/m/le/crtend.o
                0x000328cc                __CTOR_END__ = .
                0x000328cc                ___CTORS_END___ = .

.dtors          0x000328cc        0x8
                0x000328cc                __DTOR_LIST__ = .
                0x000328cc                ___DTORS_LIST___ = .
 *crtbegin.o(.dtors)
 .dtors         0x000328cc        0x4 c:/xilinx/14.4/ise_ds/edk/gnu/microblaze/nt64/bin/../lib/gcc/microblaze-xilinx-elf/4.6.2/bs/m/le/crtbegin.o
 *(EXCLUDE_FILE(*crtend.o) .dtors)
 *(SORT(.dtors.*))
 *(.dtors)
 .dtors         0x000328d0        0x4 c:/xilinx/14.4/ise_ds/edk/gnu/microblaze/nt64/bin/../lib/gcc/microblaze-xilinx-elf/4.6.2/bs/m/le/crtend.o
                0x000328d0                __DTOR_END__
                0x000328d4                PROVIDE (__DTOR_END__, .)
                0x000328d4                PROVIDE (___DTORS_END___, .)

.rodata         0x000328d4     0x5686
                0x000328d4                __rodata_start = .
 *(.rodata)
 .rodata        0x000328d4      0x1d5 ./wlan_mac_high_framework/wlan_exp_common.o
 *fill*         0x00032aa9        0x3 00
 .rodata        0x00032aac      0xf07 ./wlan_mac_high_framework/wlan_exp_node.o
 *fill*         0x000339b3        0x1 00
 .rodata        0x000339b4      0x4a2 ./wlan_mac_high_framework/wlan_exp_transport.o
 *fill*         0x00033e56        0x2 00
 .rodata        0x00033e58       0x2e ./wlan_mac_high_framework/wlan_mac_addr_filter.o
 *fill*         0x00033e86        0x2 00
 .rodata        0x00033e88      0x1b9 ./wlan_mac_high_framework/wlan_mac_bss_info.o
 *fill*         0x00034041        0x3 00
 .rodata        0x00034044      0x111 ./wlan_mac_high_framework/wlan_mac_dl_list.o
 *fill*         0x00034155        0x3 00
 .rodata        0x00034158      0x11a ./wlan_mac_high_framework/wlan_mac_entries.o
 *fill*         0x00034272        0x2 00
 .rodata        0x00034274      0x542 ./wlan_mac_high_framework/wlan_mac_eth_util.o
 *fill*         0x000347b6        0x2 00
 .rodata        0x000347b8      0x2ca ./wlan_mac_high_framework/wlan_mac_event_log.o
 *fill*         0x00034a82        0x2 00
 .rodata        0x00034a84      0xc6a ./wlan_mac_high_framework/wlan_mac_high.o
                0x000356e0                zero_addr
                0x000356e8                bcast_addr
 *fill*         0x000356ee        0x2 00
 .rodata        0x000356f0      0x2e5 ./wlan_mac_high_framework/wlan_mac_ltg.o
 *fill*         0x000359d5        0x3 00
 .rodata        0x000359d8      0x19e ./wlan_mac_high_framework/wlan_mac_queue.o
 *fill*         0x00035b76        0x2 00
 .rodata        0x00035b78        0x1 ./wlan_mac_high_framework/wlan_mac_scan.o
 *fill*         0x00035b79        0x3 00
 .rodata        0x00035b7c       0xeb ./wlan_mac_high_framework/wlan_mac_schedule.o
 *fill*         0x00035c67        0x1 00
 .rodata        0x00035c68      0x457 ./wlan_mac_high_framework/wlan_mac_station_info.o
 *fill*         0x000360bf        0x1 00
 .rodata        0x000360c0       0x60 ./wlan_mac_common/wlan_mac_common.o
 .rodata        0x00036120       0x10 ./wlan_mac_common/wlan_mac_userio_util.o
 .rodata        0x00036130      0x288 ./src/wlan_exp_node_ap.o
 .rodata        0x000363b8      0x3c5 ./src/wlan_mac_ap.o
 *fill*         0x0003677d        0x3 00
 .rodata        0x00036780      0x34b ./src/wlan_mac_ap_uart_menu.o
 *fill*         0x00036acb        0x1 00
 .rodata        0x00036acc      0x41d ./src/wlan_mac_chan_util.o
 *fill*         0x00036ee9        0x3 00
 .rodata        0x00036eec      0x164 ../../wlan_bsp_cpu_high/mb_high/lib\libxil.a(xil_printf.o)
 .rodata        0x00037050      0x1c9 ../../wlan_bsp_cpu_high/mb_high/lib\libxil.a(WARP_ip_udp_eth.o)
 *fill*         0x00037219        0x3 00
 .rodata        0x0003721c      0x106 ../../wlan_bsp_cpu_high/mb_high/lib\libxil.a(WARP_ip_udp_ip_udp.o)
 *fill*         0x00037322        0x2 00
 .rodata        0x00037324       0x1d ../../wlan_bsp_cpu_high/mb_high/lib\libxil.a(WARP_ip_udp_socket.o)
 *fill*         0x00037341        0x3 00
 .rodata        0x00037344       0xc7 ../../wlan_bsp_cpu_high/mb_high/lib\libxil.a(xaxicdma.o)
 *fill*         0x0003740b        0x1 00
 .rodata        0x0003740c      0x12f ../../wlan_bsp_cpu_high/mb_high/lib\libxil.a(xaxidma_bd.o)
 *fill*         0x0003753b        0x1 00
 .rodata        0x0003753c       0x6b ../../wlan_bsp_cpu_high/mb_high/lib\libxil.a(xaxidma_bdring.o)
 *fill*         0x000375a7        0x1 00
 .rodata        0x000375a8        0xf ../../wlan_bsp_cpu_high/mb_high/lib\libxil.a(xaxiethernet.o)
 *fill*         0x000375b7        0x1 00
 .rodata        0x000375b8        0x8 ../../wlan_bsp_cpu_high/mb_high/lib\libxil.a(xintc.o)
 .rodata        0x000375c0        0x8 ../../wlan_bsp_cpu_high/mb_high/lib\libxil.a(xgpio.o)
 .rodata        0x000375c8        0xd ../../wlan_bsp_cpu_high/mb_high/lib\libxil.a(xgpio_intr.o)
 *fill*         0x000375d5        0x3 00
 .rodata        0x000375d8        0xe ../../wlan_bsp_cpu_high/mb_high/lib\libxil.a(xgpio_sinit.o)
 *fill*         0x000375e6        0x2 00
 .rodata        0x000375e8        0xa ../../wlan_bsp_cpu_high/mb_high/lib\libxil.a(xtmrctr.o)
 *fill*         0x000375f2        0x2 00
 .rodata        0x000375f4        0xf ../../wlan_bsp_cpu_high/mb_high/lib\libxil.a(xtmrctr_intr.o)
 *fill*         0x00037603        0x1 00
 .rodata        0x00037604       0x4c ../../wlan_bsp_cpu_high/mb_high/lib\libxil.a(xtmrctr_options.o)
 .rodata        0x00037650        0xc ../../wlan_bsp_cpu_high/mb_high/lib\libxil.a(xuartlite.o)
 .rodata        0x0003765c       0x11 ../../wlan_bsp_cpu_high/mb_high/lib\libxil.a(xuartlite_intr.o)
 *fill*         0x0003766d        0x3 00
 .rodata        0x00037670       0x12 ../../wlan_bsp_cpu_high/mb_high/lib\libxil.a(xuartlite_sinit.o)
 *fill*         0x00037682        0x2 00
 .rodata        0x00037684       0x12 ../../wlan_bsp_cpu_high/mb_high/lib\libxil.a(xuartlite_stats.o)
 *fill*         0x00037696        0x2 00
 .rodata        0x00037698        0x8 ../../wlan_bsp_cpu_high/mb_high/lib\libxil.a(xmbox.o)
 .rodata        0x000376a0        0x9 ../../wlan_bsp_cpu_high/mb_high/lib\libxil.a(xmutex.o)
 *fill*         0x000376a9        0x3 00
 .rodata        0x000376ac      0x133 ../../wlan_bsp_cpu_high/mb_high/lib\libxil.a(w3_iic_eeprom.o)
 *fill*         0x000377df        0x1 00
 .rodata        0x000377e0       0x3e ../../wlan_bsp_cpu_high/mb_high/lib\libxil.a(WARP_ip_udp_config.o)
 *fill*         0x0003781e        0x2 00
 .rodata        0x00037820       0xeb ../../wlan_bsp_cpu_high/mb_high/lib\libxil.a(xaxicdma_bd.o)
 *fill*         0x0003790b        0x1 00
 .rodata        0x0003790c       0x10 c:/xilinx/14.4/ise_ds/edk/gnu/microblaze/nt64/bin/../lib/gcc/microblaze-xilinx-elf/4.6.2/bs/m/le\libgcc.a(_thenan_sf.o)
                0x0003790c                __thenan_sf
 .rodata        0x0003791c       0x14 c:/xilinx/14.4/ise_ds/edk/gnu/microblaze/nt64/bin/../lib/gcc/microblaze-xilinx-elf/4.6.2/bs/m/le\libgcc.a(_thenan_df.o)
                0x0003791c                __thenan_df
 .rodata        0x00037930      0x100 c:/xilinx/14.4/ise_ds/edk/gnu/microblaze/nt64/bin/../lib/gcc/microblaze-xilinx-elf/4.6.2/bs/m/le\libgcc.a(_clz.o)
                0x00037930                __clz_tab
 .rodata        0x00037a30      0x284 ../../wlan_bsp_cpu_high/mb_high/lib\libc.a(lib_a-ctype_.o)
                0x00037a30                _ctype_
 .rodata        0x00037cb4        0x6 ../../wlan_bsp_cpu_high/mb_high/lib\libc.a(lib_a-impure.o)
                0x00037cb4                _global_impure_ptr
 *fill*         0x00037cba        0x2 00
 .rodata        0x00037cbc       0x21 ../../wlan_bsp_cpu_high/mb_high/lib\libc.a(lib_a-mstats.o)
 *fill*         0x00037cdd        0x3 00
 .rodata        0x00037ce0       0x60 ../../wlan_bsp_cpu_high/mb_high/lib\libc.a(lib_a-findfp.o)
                0x00037ce0                __sf_fake_stderr
                0x00037d00                __sf_fake_stdout
                0x00037d20                __sf_fake_stdin
 .rodata        0x00037d40       0x51 ../../wlan_bsp_cpu_high/mb_high/lib\libc.a(lib_a-mallstatsr.o)
 *fill*         0x00037d91        0x3 00
 .rodata        0x00037d94      0x1b4 ../../wlan_bsp_cpu_high/mb_high/lib\libc.a(lib_a-vfiprintf.o)
 .rodata        0x00037f48       0x12 ../../wlan_bsp_cpu_high/mb_high/lib\libc.a(lib_a-locale.o)
 *(.rodata.*)
 *(.gnu.linkonce.r.*)
                0x00037f5a                __rodata_end = .

.rela.dyn       0x00037f5c        0x0
 .rela.text     0x00000000        0x0 c:/xilinx/14.4/ise_ds/edk/gnu/microblaze/nt64/bin/../lib/gcc/microblaze-xilinx-elf/4.6.2/../../../../microblaze-xilinx-elf/lib/bs/m/le/crt0.o
 .rela.vectors.sw_exception
                0x00000000        0x0 c:/xilinx/14.4/ise_ds/edk/gnu/microblaze/nt64/bin/../lib/gcc/microblaze-xilinx-elf/4.6.2/../../../../microblaze-xilinx-elf/lib/bs/m/le/crt0.o
 .rela.vectors.interrupt
                0x00000000        0x0 c:/xilinx/14.4/ise_ds/edk/gnu/microblaze/nt64/bin/../lib/gcc/microblaze-xilinx-elf/4.6.2/../../../../microblaze-xilinx-elf/lib/bs/m/le/crt0.o
 .rela.vectors.hw_exception
                0x00000000        0x0 c:/xilinx/14.4/ise_ds/edk/gnu/microblaze/nt64/bin/../lib/gcc/microblaze-xilinx-elf/4.6.2/../../../../microblaze-xilinx-elf/lib/bs/m/le/crt0.o
 .rela.text.startup
                0x00000000        0x0 c:/xilinx/14.4/ise_ds/edk/gnu/microblaze/nt64/bin/../lib/gcc/microblaze-xilinx-elf/4.6.2/../../../../microblaze-xilinx-elf/lib/bs/m/le/crt0.o
 .rela.data     0x00000000        0x0 c:/xilinx/14.4/ise_ds/edk/gnu/microblaze/nt64/bin/../lib/gcc/microblaze-xilinx-elf/4.6.2/../../../../microblaze-xilinx-elf/lib/bs/m/le/crt0.o

.sdata2         0x00037f5a        0x6
                0x00037f60                . = ALIGN (0x8)
 *fill*         0x00037f5a        0x6 00
                0x00037f60                __sdata2_start = .
 *(.sdata2)
 *(.sdata2.*)
 *(.gnu.linkonce.s2.*)
                0x00037f60                . = ALIGN (0x8)
                0x00037f60                __sdata2_end = .

.sbss2          0x00037f60        0x0
                0x00037f60                __sbss2_start = .
 *(.sbss2)
 *(.sbss2.*)
 *(.gnu.linkonce.sb2.*)
                0x00037f60                __sbss2_end = .

.data           0x00037f60      0x7d8
                0x00037f60                . = ALIGN (0x4)
                0x00037f60                __data_start = .
 *(.data)
 .data          0x00037f60        0x0 c:/xilinx/14.4/ise_ds/edk/gnu/microblaze/nt64/bin/../lib/gcc/microblaze-xilinx-elf/4.6.2/../../../../microblaze-xilinx-elf/lib/bs/m/le/crt0.o
 .data          0x00037f60        0x0 c:/xilinx/14.4/ise_ds/edk/gnu/microblaze/nt64/bin/../lib/gcc/microblaze-xilinx-elf/4.6.2/bs/m/le/crti.o
 .data          0x00037f60        0x8 c:/xilinx/14.4/ise_ds/edk/gnu/microblaze/nt64/bin/../lib/gcc/microblaze-xilinx-elf/4.6.2/bs/m/le/crtbegin.o
                0x00037f64                __dso_handle
 .data          0x00037f68        0x0 c:/xilinx/14.4/ise_ds/edk/gnu/microblaze/nt64/bin/../lib/gcc/microblaze-xilinx-elf/4.6.2/../../../../microblaze-xilinx-elf/lib/bs/m/le/crtinit.o
 .data          0x00037f68       0x19 ./wlan_mac_high_framework/wlan_exp_common.o
                0x00037f68                print_type_queue
                0x00037f6c                print_type_ltg
                0x00037f70                print_type_counts
                0x00037f74                print_type_event_log
                0x00037f78                print_type_transport
                0x00037f7c                print_type_node
                0x00037f80                wlan_exp_print_level
 *fill*         0x00037f81        0x3 00
 .data          0x00037f84       0x1c ./wlan_mac_high_framework/wlan_exp_node.o
                0x00037f84                wlan_exp_active_bss_info_getter_callback
                0x00037f88                wlan_exp_process_config_bss_callback
                0x00037f8c                wlan_exp_beacon_ts_update_mode_callback
                0x00037f90                wlan_exp_process_user_cmd_callback
                0x00037f94                wlan_exp_tx_cmd_add_association_callback
                0x00037f98                wlan_exp_purge_all_data_tx_queue_callback
 .data          0x00037fa0        0x0 ./wlan_mac_high_framework/wlan_exp_transport.o
 .data          0x00037fa0        0x0 ./wlan_mac_high_framework/wlan_exp_user.o
 .data          0x00037fa0        0xe ./wlan_mac_high_framework/wlan_mac_addr_filter.o
 .data          0x00037fae        0x0 ./wlan_mac_high_framework/wlan_mac_bss_info.o
 .data          0x00037fae        0x0 ./wlan_mac_high_framework/wlan_mac_dl_list.o
 *fill*         0x00037fae        0x2 00
 .data          0x00037fb0        0x4 ./wlan_mac_high_framework/wlan_mac_entries.o
                0x00037fb0                mac_payload_log_len
 .data          0x00037fb4        0x0 ./wlan_mac_high_framework/wlan_mac_eth_util.o
 .data          0x00037fb4        0x0 ./wlan_mac_high_framework/wlan_mac_event_log.o
 .data          0x00037fb4        0x4 ./wlan_mac_high_framework/wlan_mac_high.o
                0x00037fb4                right_shift_test
 .data          0x00037fb8        0x0 ./wlan_mac_high_framework/wlan_mac_ltg.o
 .data          0x00037fb8        0x0 ./wlan_mac_high_framework/wlan_mac_packet_types.o
 .data          0x00037fb8        0x0 ./wlan_mac_high_framework/wlan_mac_queue.o
 .data          0x00037fb8        0xf ./wlan_mac_high_framework/wlan_mac_scan.o
                0x00037fb8                default_channel_selections
 .data          0x00037fc7        0x0 ./wlan_mac_high_framework/wlan_mac_schedule.o
 .data          0x00037fc7        0x0 ./wlan_mac_high_framework/wlan_mac_station_info.o
 .data          0x00037fc7        0x0 ./wlan_mac_common/wlan_mac_common.o
 .data          0x00037fc7        0x0 ./wlan_mac_common/wlan_mac_mailbox_util.o
 .data          0x00037fc7        0x0 ./wlan_mac_common/wlan_mac_pkt_buf_util.o
 .data          0x00037fc7        0x0 ./wlan_mac_common/wlan_mac_sysmon_util.o
 .data          0x00037fc7        0x0 ./wlan_mac_common/wlan_mac_time_util.o
 .data          0x00037fc7        0x0 ./wlan_mac_common/wlan_mac_userio_util.o
 .data          0x00037fc7        0x0 ./src/wlan_exp_node_ap.o
 *fill*         0x00037fc7        0x1 00
 .data          0x00037fc8        0xb ./src/wlan_mac_ap.o
 *fill*         0x00037fd3        0x1 00
 .data          0x00037fd4        0x4 ./src/wlan_mac_ap_uart_menu.o
 .data          0x00037fd8        0x0 ./src/wlan_mac_chan_util.o
 .data          0x00037fd8        0x0 ../../wlan_bsp_cpu_high/mb_high/lib\libxil.a(xil_printf.o)
 .data          0x00037fd8        0x0 ../../wlan_bsp_cpu_high/mb_high/lib\libxil.a(_exception_handler.o)
 .data          0x00037fd8        0x0 ../../wlan_bsp_cpu_high/mb_high/lib\libxil.a(_program_clean.o)
 .data          0x00037fd8        0x0 ../../wlan_bsp_cpu_high/mb_high/lib\libxil.a(_program_init.o)
 .data          0x00037fd8       0x4c ../../wlan_bsp_cpu_high/mb_high/lib\libxil.a(hw_exception_handler.o)
                0x00037fe4                MB_ExceptionVectorTable
 .data          0x00038024        0x0 ../../wlan_bsp_cpu_high/mb_high/lib\libxil.a(microblaze_interrupt_handler.o)
 .data          0x00038024        0x8 ../../wlan_bsp_cpu_high/mb_high/lib\libxil.a(microblaze_interrupts_g.o)
                0x00038024                MB_InterruptVectorTable
 .data          0x0003802c        0x0 ../../wlan_bsp_cpu_high/mb_high/lib\libxil.a(outbyte.o)
 .data          0x0003802c        0x0 ../../wlan_bsp_cpu_high/mb_high/lib\libxil.a(xil_exception.o)
 .data          0x0003802c        0x0 ../../wlan_bsp_cpu_high/mb_high/lib\libxil.a(xil_io.o)
 .data          0x0003802c        0x0 ../../wlan_bsp_cpu_high/mb_high/lib\libxil.a(WARP_ip_udp_init.o)
 .data          0x0003802c        0x0 ../../wlan_bsp_cpu_high/mb_high/lib\libxil.a(WARP_ip_udp_eth.o)
 .data          0x0003802c        0x0 ../../wlan_bsp_cpu_high/mb_high/lib\libxil.a(WARP_ip_udp_ip_udp.o)
 .data          0x0003802c        0x0 ../../wlan_bsp_cpu_high/mb_high/lib\libxil.a(WARP_ip_udp_socket.o)
 .data          0x0003802c        0x0 ../../wlan_bsp_cpu_high/mb_high/lib\libxil.a(xaxicdma.o)
 .data          0x0003802c        0x0 ../../wlan_bsp_cpu_high/mb_high/lib\libxil.a(xaxicdma_bdring.o)
 .data          0x0003802c        0x0 ../../wlan_bsp_cpu_high/mb_high/lib\libxil.a(xaxicdma_intr.o)
 .data          0x0003802c        0x0 ../../wlan_bsp_cpu_high/mb_high/lib\libxil.a(xaxicdma_sinit.o)
 .data          0x0003802c        0x0 ../../wlan_bsp_cpu_high/mb_high/lib\libxil.a(xaxidma.o)
 .data          0x0003802c        0x0 ../../wlan_bsp_cpu_high/mb_high/lib\libxil.a(xaxidma_bd.o)
 .data          0x0003802c        0x0 ../../wlan_bsp_cpu_high/mb_high/lib\libxil.a(xaxidma_bdring.o)
 .data          0x0003802c        0x0 ../../wlan_bsp_cpu_high/mb_high/lib\libxil.a(xaxidma_sinit.o)
 .data          0x0003802c        0x0 ../../wlan_bsp_cpu_high/mb_high/lib\libxil.a(xaxiethernet.o)
 .data          0x0003802c        0x0 ../../wlan_bsp_cpu_high/mb_high/lib\libxil.a(xaxiethernet_sinit.o)
 .data          0x0003802c        0x0 ../../wlan_bsp_cpu_high/mb_high/lib\libxil.a(xintc.o)
 .data          0x0003802c       0x70 ../../wlan_bsp_cpu_high/mb_high/lib\libxil.a(xintc_g.o)
                0x0003802c                XIntc_ConfigTable
 .data          0x0003809c        0x0 ../../wlan_bsp_cpu_high/mb_high/lib\libxil.a(xintc_l.o)
 .data          0x0003809c        0x0 ../../wlan_bsp_cpu_high/mb_high/lib\libxil.a(xgpio.o)
 .data          0x0003809c        0x0 ../../wlan_bsp_cpu_high/mb_high/lib\libxil.a(xgpio_intr.o)
 .data          0x0003809c        0x0 ../../wlan_bsp_cpu_high/mb_high/lib\libxil.a(xgpio_sinit.o)
 .data          0x0003809c        0x0 ../../wlan_bsp_cpu_high/mb_high/lib\libxil.a(xtmrctr.o)
 .data          0x0003809c        0x8 ../../wlan_bsp_cpu_high/mb_high/lib\libxil.a(xtmrctr_g.o)
                0x0003809c                XTmrCtr_ConfigTable
 .data          0x000380a4        0x0 ../../wlan_bsp_cpu_high/mb_high/lib\libxil.a(xtmrctr_intr.o)
 .data          0x000380a4        0x2 ../../wlan_bsp_cpu_high/mb_high/lib\libxil.a(xtmrctr_l.o)
                0x000380a4                XTmrCtr_Offsets
 .data          0x000380a6        0x0 ../../wlan_bsp_cpu_high/mb_high/lib\libxil.a(xtmrctr_options.o)
 .data          0x000380a6        0x0 ../../wlan_bsp_cpu_high/mb_high/lib\libxil.a(xuartlite.o)
 .data          0x000380a6        0x0 ../../wlan_bsp_cpu_high/mb_high/lib\libxil.a(xuartlite_intr.o)
 .data          0x000380a6        0x0 ../../wlan_bsp_cpu_high/mb_high/lib\libxil.a(xuartlite_l.o)
 .data          0x000380a6        0x0 ../../wlan_bsp_cpu_high/mb_high/lib\libxil.a(xuartlite_sinit.o)
 .data          0x000380a6        0x0 ../../wlan_bsp_cpu_high/mb_high/lib\libxil.a(xuartlite_stats.o)
 .data          0x000380a6        0x0 ../../wlan_bsp_cpu_high/mb_high/lib\libxil.a(xmbox.o)
 .data          0x000380a6        0x0 ../../wlan_bsp_cpu_high/mb_high/lib\libxil.a(xmbox_sinit.o)
 .data          0x000380a6        0x0 ../../wlan_bsp_cpu_high/mb_high/lib\libxil.a(xmutex.o)
 .data          0x000380a6        0x0 ../../wlan_bsp_cpu_high/mb_high/lib\libxil.a(xmutex_sinit.o)
 .data          0x000380a6        0x0 ../../wlan_bsp_cpu_high/mb_high/lib\libxil.a(w3_iic_eeprom.o)
 .data          0x000380a6        0x0 ../../wlan_bsp_cpu_high/mb_high/lib\libxil.a(print.o)
 *fill*         0x000380a6        0x2 00
 .data          0x000380a8        0x4 ../../wlan_bsp_cpu_high/mb_high/lib\libxil.a(xbasic_types.o)
                0x000380a8                XWaitInAssert
 .data          0x000380ac        0x0 ../../wlan_bsp_cpu_high/mb_high/lib\libxil.a(microblaze_disable_exceptions.o)
 .data          0x000380ac        0x0 ../../wlan_bsp_cpu_high/mb_high/lib\libxil.a(microblaze_disable_interrupts.o)
 .data          0x000380ac        0x0 ../../wlan_bsp_cpu_high/mb_high/lib\libxil.a(microblaze_enable_exceptions.o)
 .data          0x000380ac        0x0 ../../wlan_bsp_cpu_high/mb_high/lib\libxil.a(microblaze_enable_interrupts.o)
 .data          0x000380ac        0x0 ../../wlan_bsp_cpu_high/mb_high/lib\libxil.a(microblaze_invalidate_dcache_range.o)
 .data          0x000380ac        0x4 ../../wlan_bsp_cpu_high/mb_high/lib\libxil.a(xil_assert.o)
                0x000380ac                Xil_AssertWait
 .data          0x000380b0        0x0 ../../wlan_bsp_cpu_high/mb_high/lib\libxil.a(WARP_ip_udp_config.o)
 .data          0x000380b0        0x0 ../../wlan_bsp_cpu_high/mb_high/lib\libxil.a(xaxicdma_bd.o)
 .data          0x000380b0       0x18 ../../wlan_bsp_cpu_high/mb_high/lib\libxil.a(xaxicdma_g.o)
                0x000380b0                XAxiCdma_ConfigTable
 .data          0x000380c8       0x60 ../../wlan_bsp_cpu_high/mb_high/lib\libxil.a(xaxidma_g.o)
                0x000380c8                XAxiDma_ConfigTable
 .data          0x00038128       0x48 ../../wlan_bsp_cpu_high/mb_high/lib\libxil.a(xaxiethernet_g.o)
                0x00038128                XAxiEthernet_ConfigTable
 .data          0x00038170       0x10 ../../wlan_bsp_cpu_high/mb_high/lib\libxil.a(xgpio_g.o)
                0x00038170                XGpio_ConfigTable
 .data          0x00038180       0x10 ../../wlan_bsp_cpu_high/mb_high/lib\libxil.a(xuartlite_g.o)
                0x00038180                XUartLite_ConfigTable
 .data          0x00038190        0xc ../../wlan_bsp_cpu_high/mb_high/lib\libxil.a(xmbox_g.o)
                0x00038190                XMbox_ConfigTable
 .data          0x0003819c       0x10 ../../wlan_bsp_cpu_high/mb_high/lib\libxil.a(xmutex_g.o)
                0x0003819c                XMutex_ConfigTable
 .data          0x000381ac        0x0 c:/xilinx/14.4/ise_ds/edk/gnu/microblaze/nt64/bin/../lib/gcc/microblaze-xilinx-elf/4.6.2/bs/m/le\libgcc.a(_fixunssfsi.o)
 .data          0x000381ac        0x0 c:/xilinx/14.4/ise_ds/edk/gnu/microblaze/nt64/bin/../lib/gcc/microblaze-xilinx-elf/4.6.2/bs/m/le\libgcc.a(_floatundisf.o)
 .data          0x000381ac        0x0 c:/xilinx/14.4/ise_ds/edk/gnu/microblaze/nt64/bin/../lib/gcc/microblaze-xilinx-elf/4.6.2/bs/m/le\libgcc.a(_udivdi3.o)
 .data          0x000381ac        0x0 c:/xilinx/14.4/ise_ds/edk/gnu/microblaze/nt64/bin/../lib/gcc/microblaze-xilinx-elf/4.6.2/bs/m/le\libgcc.a(_addsub_sf.o)
 .data          0x000381ac        0x0 c:/xilinx/14.4/ise_ds/edk/gnu/microblaze/nt64/bin/../lib/gcc/microblaze-xilinx-elf/4.6.2/bs/m/le\libgcc.a(_mul_sf.o)
 .data          0x000381ac        0x0 c:/xilinx/14.4/ise_ds/edk/gnu/microblaze/nt64/bin/../lib/gcc/microblaze-xilinx-elf/4.6.2/bs/m/le\libgcc.a(_div_sf.o)
 .data          0x000381ac        0x0 c:/xilinx/14.4/ise_ds/edk/gnu/microblaze/nt64/bin/../lib/gcc/microblaze-xilinx-elf/4.6.2/bs/m/le\libgcc.a(_ge_sf.o)
 .data          0x000381ac        0x0 c:/xilinx/14.4/ise_ds/edk/gnu/microblaze/nt64/bin/../lib/gcc/microblaze-xilinx-elf/4.6.2/bs/m/le\libgcc.a(_sf_to_si.o)
 .data          0x000381ac        0x0 c:/xilinx/14.4/ise_ds/edk/gnu/microblaze/nt64/bin/../lib/gcc/microblaze-xilinx-elf/4.6.2/bs/m/le\libgcc.a(_thenan_sf.o)
 .data          0x000381ac        0x0 c:/xilinx/14.4/ise_ds/edk/gnu/microblaze/nt64/bin/../lib/gcc/microblaze-xilinx-elf/4.6.2/bs/m/le\libgcc.a(_usi_to_sf.o)
 .data          0x000381ac        0x0 c:/xilinx/14.4/ise_ds/edk/gnu/microblaze/nt64/bin/../lib/gcc/microblaze-xilinx-elf/4.6.2/bs/m/le\libgcc.a(_addsub_df.o)
 .data          0x000381ac        0x0 c:/xilinx/14.4/ise_ds/edk/gnu/microblaze/nt64/bin/../lib/gcc/microblaze-xilinx-elf/4.6.2/bs/m/le\libgcc.a(_mul_df.o)
 .data          0x000381ac        0x0 c:/xilinx/14.4/ise_ds/edk/gnu/microblaze/nt64/bin/../lib/gcc/microblaze-xilinx-elf/4.6.2/bs/m/le\libgcc.a(_df_to_sf.o)
 .data          0x000381ac        0x0 c:/xilinx/14.4/ise_ds/edk/gnu/microblaze/nt64/bin/../lib/gcc/microblaze-xilinx-elf/4.6.2/bs/m/le\libgcc.a(_thenan_df.o)
 .data          0x000381ac        0x0 c:/xilinx/14.4/ise_ds/edk/gnu/microblaze/nt64/bin/../lib/gcc/microblaze-xilinx-elf/4.6.2/bs/m/le\libgcc.a(_usi_to_df.o)
 .data          0x000381ac        0x0 c:/xilinx/14.4/ise_ds/edk/gnu/microblaze/nt64/bin/../lib/gcc/microblaze-xilinx-elf/4.6.2/bs/m/le\libgcc.a(modsi3.o)
 .data          0x000381ac        0x0 c:/xilinx/14.4/ise_ds/edk/gnu/microblaze/nt64/bin/../lib/gcc/microblaze-xilinx-elf/4.6.2/bs/m/le\libgcc.a(udivsi3.o)
 .data          0x000381ac        0x0 c:/xilinx/14.4/ise_ds/edk/gnu/microblaze/nt64/bin/../lib/gcc/microblaze-xilinx-elf/4.6.2/bs/m/le\libgcc.a(umodsi3.o)
 .data          0x000381ac        0x0 c:/xilinx/14.4/ise_ds/edk/gnu/microblaze/nt64/bin/../lib/gcc/microblaze-xilinx-elf/4.6.2/bs/m/le\libgcc.a(_muldi3.o)
 .data          0x000381ac        0x0 c:/xilinx/14.4/ise_ds/edk/gnu/microblaze/nt64/bin/../lib/gcc/microblaze-xilinx-elf/4.6.2/bs/m/le\libgcc.a(_clz.o)
 .data          0x000381ac        0x0 c:/xilinx/14.4/ise_ds/edk/gnu/microblaze/nt64/bin/../lib/gcc/microblaze-xilinx-elf/4.6.2/bs/m/le\libgcc.a(_clzsi2.o)
 .data          0x000381ac        0x0 c:/xilinx/14.4/ise_ds/edk/gnu/microblaze/nt64/bin/../lib/gcc/microblaze-xilinx-elf/4.6.2/bs/m/le\libgcc.a(_pack_sf.o)
 .data          0x000381ac        0x0 c:/xilinx/14.4/ise_ds/edk/gnu/microblaze/nt64/bin/../lib/gcc/microblaze-xilinx-elf/4.6.2/bs/m/le\libgcc.a(_unpack_sf.o)
 .data          0x000381ac        0x0 c:/xilinx/14.4/ise_ds/edk/gnu/microblaze/nt64/bin/../lib/gcc/microblaze-xilinx-elf/4.6.2/bs/m/le\libgcc.a(_fpcmp_parts_sf.o)
 .data          0x000381ac        0x0 c:/xilinx/14.4/ise_ds/edk/gnu/microblaze/nt64/bin/../lib/gcc/microblaze-xilinx-elf/4.6.2/bs/m/le\libgcc.a(_make_sf.o)
 .data          0x000381ac        0x0 c:/xilinx/14.4/ise_ds/edk/gnu/microblaze/nt64/bin/../lib/gcc/microblaze-xilinx-elf/4.6.2/bs/m/le\libgcc.a(_pack_df.o)
 .data          0x000381ac        0x0 c:/xilinx/14.4/ise_ds/edk/gnu/microblaze/nt64/bin/../lib/gcc/microblaze-xilinx-elf/4.6.2/bs/m/le\libgcc.a(_unpack_df.o)
 .data          0x000381ac        0x0 c:/xilinx/14.4/ise_ds/edk/gnu/microblaze/nt64/bin/../lib/gcc/microblaze-xilinx-elf/4.6.2/bs/m/le\libgcc.a(_lshrdi3.o)
 .data          0x000381ac        0x0 c:/xilinx/14.4/ise_ds/edk/gnu/microblaze/nt64/bin/../lib/gcc/microblaze-xilinx-elf/4.6.2/bs/m/le\libgcc.a(_ashldi3.o)
 .data          0x000381ac        0x4 ../../wlan_bsp_cpu_high/mb_high/lib\libc.a(lib_a-ctype_.o)
                0x000381ac                __ctype_ptr__
 .data          0x000381b0        0x0 ../../wlan_bsp_cpu_high/mb_high/lib\libc.a(lib_a-exit.o)
 .data          0x000381b0       0xf4 ../../wlan_bsp_cpu_high/mb_high/lib\libc.a(lib_a-impure.o)
                0x000381b0                _impure_ptr
 .data          0x000382a4        0x0 ../../wlan_bsp_cpu_high/mb_high/lib\libc.a(lib_a-malloc.o)
 .data          0x000382a4      0x410 ../../wlan_bsp_cpu_high/mb_high/lib\libc.a(lib_a-mallocr.o)
                0x000382a4                __malloc_sbrk_base
                0x000382a8                __malloc_trim_threshold
                0x000382ac                __malloc_av_
 .data          0x000386b4        0x0 ../../wlan_bsp_cpu_high/mb_high/lib\libc.a(lib_a-memcmp.o)
 .data          0x000386b4        0x0 ../../wlan_bsp_cpu_high/mb_high/lib\libc.a(lib_a-memcpy.o)
 .data          0x000386b4        0x0 ../../wlan_bsp_cpu_high/mb_high/lib\libc.a(lib_a-memmove.o)
 .data          0x000386b4        0x0 ../../wlan_bsp_cpu_high/mb_high/lib\libc.a(lib_a-memset.o)
 .data          0x000386b4        0x0 ../../wlan_bsp_cpu_high/mb_high/lib\libc.a(lib_a-mlock.o)
 .data          0x000386b4        0x0 ../../wlan_bsp_cpu_high/mb_high/lib\libc.a(lib_a-mstats.o)
 .data          0x000386b4        0x0 ../../wlan_bsp_cpu_high/mb_high/lib\libc.a(lib_a-rand.o)
 .data          0x000386b4        0x0 ../../wlan_bsp_cpu_high/mb_high/lib\libc.a(lib_a-realloc.o)
 .data          0x000386b4        0x0 ../../wlan_bsp_cpu_high/mb_high/lib\libc.a(lib_a-reallocr.o)
 .data          0x000386b4        0x0 ../../wlan_bsp_cpu_high/mb_high/lib\libc.a(lib_a-sbrkr.o)
 .data          0x000386b4        0x0 ../../wlan_bsp_cpu_high/mb_high/lib\libc.a(lib_a-strcmp.o)
 .data          0x000386b4        0x0 ../../wlan_bsp_cpu_high/mb_high/lib\libc.a(lib_a-strcpy.o)
 .data          0x000386b4        0x0 ../../wlan_bsp_cpu_high/mb_high/lib\libc.a(lib_a-strlen.o)
 .data          0x000386b4        0x0 ../../wlan_bsp_cpu_high/mb_high/lib\libc.a(lib_a-strncmp.o)
 .data          0x000386b4        0x0 ../../wlan_bsp_cpu_high/mb_high/lib\libc.a(lib_a-strncpy.o)
 .data          0x000386b4        0x0 ../../wlan_bsp_cpu_high/mb_high/lib\libc.a(lib_a-strndup.o)
 .data          0x000386b4        0x0 ../../wlan_bsp_cpu_high/mb_high/lib\libc.a(lib_a-strndup_r.o)
 .data          0x000386b4        0x0 ../../wlan_bsp_cpu_high/mb_high/lib\libc.a(lib_a-strnlen.o)
 .data          0x000386b4        0x0 ../../wlan_bsp_cpu_high/mb_high/lib\libc.a(lib_a-strrchr.o)
 .data          0x000386b4        0x0 ../../wlan_bsp_cpu_high/mb_high/lib\libc.a(lib_a-__call_atexit.o)
 .data          0x000386b4        0x0 ../../wlan_bsp_cpu_high/mb_high/lib\libc.a(lib_a-findfp.o)
 .data          0x000386b4        0x0 ../../wlan_bsp_cpu_high/mb_high/lib\libc.a(lib_a-fiprintf.o)
 .data          0x000386b4        0x0 ../../wlan_bsp_cpu_high/mb_high/lib\libc.a(lib_a-freer.o)
 .data          0x000386b4        0x0 ../../wlan_bsp_cpu_high/mb_high/lib\libc.a(lib_a-fwalk.o)
 .data          0x000386b4        0x0 ../../wlan_bsp_cpu_high/mb_high/lib\libc.a(lib_a-mallinfor.o)
 .data          0x000386b4        0x0 ../../wlan_bsp_cpu_high/mb_high/lib\libc.a(lib_a-malloptr.o)
 .data          0x000386b4        0x0 ../../wlan_bsp_cpu_high/mb_high/lib\libc.a(lib_a-mallstatsr.o)
 .data          0x000386b4        0x0 ../../wlan_bsp_cpu_high/mb_high/lib\libc.a(lib_a-reent.o)
 .data          0x000386b4        0x0 ../../wlan_bsp_cpu_high/mb_high/lib\libc.a(lib_a-stdio.o)
 .data          0x000386b4        0x0 ../../wlan_bsp_cpu_high/mb_high/lib\libc.a(lib_a-strchr.o)
 .data          0x000386b4        0x0 ../../wlan_bsp_cpu_high/mb_high/lib\libc.a(lib_a-vfiprintf.o)
 .data          0x000386b4        0x0 ../../wlan_bsp_cpu_high/mb_high/lib\libc.a(lib_a-writer.o)
 .data          0x000386b4        0x0 ../../wlan_bsp_cpu_high/mb_high/lib\libc.a(lib_a-wsetup.o)
 .data          0x000386b4        0x0 ../../wlan_bsp_cpu_high/mb_high/lib\libc.a(lib_a-closer.o)
 .data          0x000386b4        0x0 ../../wlan_bsp_cpu_high/mb_high/lib\libc.a(lib_a-fclose.o)
 .data          0x000386b4        0x0 ../../wlan_bsp_cpu_high/mb_high/lib\libc.a(lib_a-fflush.o)
 .data          0x000386b4        0x0 ../../wlan_bsp_cpu_high/mb_high/lib\libc.a(lib_a-fputwc.o)
 .data          0x000386b4        0x0 ../../wlan_bsp_cpu_high/mb_high/lib\libc.a(lib_a-fvwrite.o)
 .data          0x000386b4       0x7c ../../wlan_bsp_cpu_high/mb_high/lib\libc.a(lib_a-locale.o)
                0x000386b4                __mb_cur_max
 .data          0x00038730        0x0 ../../wlan_bsp_cpu_high/mb_high/lib\libc.a(lib_a-lseekr.o)
 .data          0x00038730        0x0 ../../wlan_bsp_cpu_high/mb_high/lib\libc.a(lib_a-makebuf.o)
 .data          0x00038730        0x0 ../../wlan_bsp_cpu_high/mb_high/lib\libc.a(lib_a-memchr.o)
 .data          0x00038730        0x0 ../../wlan_bsp_cpu_high/mb_high/lib\libc.a(lib_a-readr.o)
 .data          0x00038730        0x0 ../../wlan_bsp_cpu_high/mb_high/lib\libc.a(lib_a-wbuf.o)
 .data          0x00038730        0x0 ../../wlan_bsp_cpu_high/mb_high/lib\libc.a(lib_a-wcrtomb.o)
 .data          0x00038730        0x4 ../../wlan_bsp_cpu_high/mb_high/lib\libc.a(lib_a-wctomb_r.o)
                0x00038730                __wctomb
 .data          0x00038734        0x0 ../../wlan_bsp_cpu_high/mb_high/lib\libc.a(lib_a-fstatr.o)
 .data          0x00038734        0x0 ../../wlan_bsp_cpu_high/mb_high/lib\libc.a(lib_a-isattyr.o)
 .data          0x00038734        0x0 ../../wlan_bsp_cpu_high/mb_high/lib\libxil.a(fstat.o)
 .data          0x00038734        0x0 ../../wlan_bsp_cpu_high/mb_high/lib\libxil.a(isatty.o)
 .data          0x00038734        0x0 ../../wlan_bsp_cpu_high/mb_high/lib\libxil.a(lseek.o)
 .data          0x00038734        0x0 ../../wlan_bsp_cpu_high/mb_high/lib\libxil.a(sbrk.o)
 .data          0x00038734        0x0 ../../wlan_bsp_cpu_high/mb_high/lib\libxil.a(write.o)
 .data          0x00038734        0x0 ../../wlan_bsp_cpu_high/mb_high/lib\libxil.a(read.o)
 .data          0x00038734        0x0 ../../wlan_bsp_cpu_high/mb_high/lib\libxil.a(close.o)
 .data          0x00038734        0x0 ../../wlan_bsp_cpu_high/mb_high/lib\libxil.a(errno.o)
 .data          0x00038734        0x0 ../../wlan_bsp_cpu_high/mb_high/lib\libxil.a(inbyte.o)
 .data          0x00038734        0x0 c:/xilinx/14.4/ise_ds/edk/gnu/microblaze/nt64/bin/../lib/gcc/microblaze-xilinx-elf/4.6.2/bs/m/le\libgcc.a(_umoddi3.o)
 .data          0x00038734        0x4 c:/xilinx/14.4/ise_ds/edk/gnu/microblaze/nt64/bin/../lib/gcc/microblaze-xilinx-elf/4.6.2/bs/m/le/crtend.o
 .data          0x00038738        0x0 c:/xilinx/14.4/ise_ds/edk/gnu/microblaze/nt64/bin/../lib/gcc/microblaze-xilinx-elf/4.6.2/bs/m/le/crtn.o
 *(.data.*)
 *(.gnu.linkonce.d.*)
                0x00038738                __data_end = .

.got
 *(.got)

.got1
 *(.got1)

.got2
 *(.got2)

.eh_frame       0x00038738       0x7c
 *(.eh_frame)
 .eh_frame      0x00038738        0x0 c:/xilinx/14.4/ise_ds/edk/gnu/microblaze/nt64/bin/../lib/gcc/microblaze-xilinx-elf/4.6.2/bs/m/le/crtbegin.o
 .eh_frame      0x00038738       0x3c c:/xilinx/14.4/ise_ds/edk/gnu/microblaze/nt64/bin/../lib/gcc/microblaze-xilinx-elf/4.6.2/bs/m/le\libgcc.a(_udivdi3.o)
 .eh_frame      0x00038774       0x3c c:/xilinx/14.4/ise_ds/edk/gnu/microblaze/nt64/bin/../lib/gcc/microblaze-xilinx-elf/4.6.2/bs/m/le\libgcc.a(_umoddi3.o)
 .eh_frame      0x000387b0        0x4 c:/xilinx/14.4/ise_ds/edk/gnu/microblaze/nt64/bin/../lib/gcc/microblaze-xilinx-elf/4.6.2/bs/m/le/crtend.o

.jcr            0x000387b4        0x4
 *(.jcr)
 .jcr           0x000387b4        0x0 c:/xilinx/14.4/ise_ds/edk/gnu/microblaze/nt64/bin/../lib/gcc/microblaze-xilinx-elf/4.6.2/bs/m/le/crtbegin.o
 .jcr           0x000387b4        0x4 c:/xilinx/14.4/ise_ds/edk/gnu/microblaze/nt64/bin/../lib/gcc/microblaze-xilinx-elf/4.6.2/bs/m/le/crtend.o

.gcc_except_table
 *(.gcc_except_table)

.sdata          0x000387b8       0x10
                0x000387b8                . = ALIGN (0x8)
                0x000387b8                __sdata_start = .
 *(.sdata)
 *(.sdata.*)
 *(.gnu.linkonce.s.*)
                0x000387c8                . = (. + 0x10)
 *fill*         0x000387b8       0x10 00
                0x000387c8                __sdata_end = .

.sbss           0x000387c8        0x0
                0x000387c8                . = ALIGN (0x4)
                0x000387c8                __sbss_start = .
 *(.sbss)
 *(.sbss.*)
 *(.gnu.linkonce.sb.*)
                0x000387c8                . = ALIGN (0x8)
                0x000387c8                __sbss_end = .

.tdata          0x000387c8        0x0
                0x000387c8                __tdata_start = .
 *(.tdata)
 *(.tdata.*)
 *(.gnu.linkonce.td.*)
                0x000387c8                __tdata_end = .

.tbss           0x000387c8        0x0
                0x000387c8                __tbss_start = .
 *(.tbss)
 *(.tbss.*)
 *(.gnu.linkonce.tb.*)
                0x000387c8                __tbss_end = .

.bss            0x000387c8     0x2d8c
                0x000387c8                . = ALIGN (0x4)
                0x000387c8                __bss_start = .
 *(.bss)
 .bss           0x000387c8        0x0 c:/xilinx/14.4/ise_ds/edk/gnu/microblaze/nt64/bin/../lib/gcc/microblaze-xilinx-elf/4.6.2/../../../../microblaze-xilinx-elf/lib/bs/m/le/crt0.o
 .bss           0x000387c8        0x0 c:/xilinx/14.4/ise_ds/edk/gnu/microblaze/nt64/bin/../lib/gcc/microblaze-xilinx-elf/4.6.2/bs/m/le/crti.o
 .bss           0x000387c8       0x20 c:/xilinx/14.4/ise_ds/edk/gnu/microblaze/nt64/bin/../lib/gcc/microblaze-xilinx-elf/4.6.2/bs/m/le/crtbegin.o
 .bss           0x000387e8        0x0 c:/xilinx/14.4/ise_ds/edk/gnu/microblaze/nt64/bin/../lib/gcc/microblaze-xilinx-elf/4.6.2/../../../../microblaze-xilinx-elf/lib/bs/m/le/crtinit.o
 .bss           0x000387e8        0x0 ./wlan_mac_high_framework/wlan_exp_common.o
 .bss           0x000387e8       0x78 ./wlan_mac_high_framework/wlan_exp_node.o
 .bss           0x00038860      0x148 ./wlan_mac_high_framework/wlan_exp_transport.o
 .bss           0x000389a8        0x0 ./wlan_mac_high_framework/wlan_exp_user.o
 .bss           0x000389a8        0x0 ./wlan_mac_high_framework/wlan_mac_addr_filter.o
 .bss           0x000389a8       0x24 ./wlan_mac_high_framework/wlan_mac_bss_info.o
 .bss           0x000389cc        0x0 ./wlan_mac_high_framework/wlan_mac_dl_list.o
 .bss           0x000389cc        0x8 ./wlan_mac_high_framework/wlan_mac_entries.o
 .bss           0x000389d4      0x6aa ./wlan_mac_high_framework/wlan_mac_eth_util.o
 *fill*         0x0003907e        0x2 00
 .bss           0x00039080       0x28 ./wlan_mac_high_framework/wlan_mac_event_log.o
 .bss           0x000390a8       0x30 ./wlan_mac_high_framework/wlan_mac_high.o
 .bss           0x000390d8       0x24 ./wlan_mac_high_framework/wlan_mac_ltg.o
 .bss           0x000390fc        0x0 ./wlan_mac_high_framework/wlan_mac_packet_types.o
 .bss           0x000390fc       0x1c ./wlan_mac_high_framework/wlan_mac_queue.o
 .bss           0x00039118       0x11 ./wlan_mac_high_framework/wlan_mac_scan.o
 *fill*         0x00039129        0x3 00
 .bss           0x0003912c       0x48 ./wlan_mac_high_framework/wlan_mac_schedule.o
 .bss           0x00039174       0x18 ./wlan_mac_high_framework/wlan_mac_station_info.o
 .bss           0x0003918c       0x18 ./wlan_mac_common/wlan_mac_common.o
 .bss           0x000391a4       0x18 ./wlan_mac_common/wlan_mac_mailbox_util.o
 .bss           0x000391bc       0x14 ./wlan_mac_common/wlan_mac_pkt_buf_util.o
 .bss           0x000391d0        0x0 ./wlan_mac_common/wlan_mac_sysmon_util.o
 .bss           0x000391d0        0x0 ./wlan_mac_common/wlan_mac_time_util.o
 .bss           0x000391d0        0x0 ./wlan_mac_common/wlan_mac_userio_util.o
 .bss           0x000391d0        0x0 ./src/wlan_exp_node_ap.o
 .bss           0x000391d0       0x58 ./src/wlan_mac_ap.o
 .bss           0x00039228       0x2c ./src/wlan_mac_ap_uart_menu.o
 .bss           0x00039254        0x0 ./src/wlan_mac_chan_util.o
 .bss           0x00039254        0x0 ../../wlan_bsp_cpu_high/mb_high/lib\libxil.a(xil_printf.o)
 .bss           0x00039254        0x0 ../../wlan_bsp_cpu_high/mb_high/lib\libxil.a(_exception_handler.o)
 .bss           0x00039254        0x0 ../../wlan_bsp_cpu_high/mb_high/lib\libxil.a(_program_clean.o)
 .bss           0x00039254        0x0 ../../wlan_bsp_cpu_high/mb_high/lib\libxil.a(_program_init.o)
 .bss           0x00039254        0x0 ../../wlan_bsp_cpu_high/mb_high/lib\libxil.a(hw_exception_handler.o)
 .bss           0x00039254        0x0 ../../wlan_bsp_cpu_high/mb_high/lib\libxil.a(microblaze_interrupt_handler.o)
 .bss           0x00039254        0x0 ../../wlan_bsp_cpu_high/mb_high/lib\libxil.a(microblaze_interrupts_g.o)
 .bss           0x00039254        0x0 ../../wlan_bsp_cpu_high/mb_high/lib\libxil.a(outbyte.o)
 .bss           0x00039254        0x0 ../../wlan_bsp_cpu_high/mb_high/lib\libxil.a(xil_exception.o)
 .bss           0x00039254        0x0 ../../wlan_bsp_cpu_high/mb_high/lib\libxil.a(xil_io.o)
 .bss           0x00039254        0x0 ../../wlan_bsp_cpu_high/mb_high/lib\libxil.a(WARP_ip_udp_init.o)
 .bss           0x00039254        0x0 ../../wlan_bsp_cpu_high/mb_high/lib\libxil.a(WARP_ip_udp_eth.o)
 .bss           0x00039254        0x2 ../../wlan_bsp_cpu_high/mb_high/lib\libxil.a(WARP_ip_udp_ip_udp.o)
                0x00039254                ipv4_id_counter
 .bss           0x00039256        0x0 ../../wlan_bsp_cpu_high/mb_high/lib\libxil.a(WARP_ip_udp_socket.o)
 .bss           0x00039256        0x0 ../../wlan_bsp_cpu_high/mb_high/lib\libxil.a(xaxicdma.o)
 .bss           0x00039256        0x0 ../../wlan_bsp_cpu_high/mb_high/lib\libxil.a(xaxicdma_bdring.o)
 .bss           0x00039256        0x0 ../../wlan_bsp_cpu_high/mb_high/lib\libxil.a(xaxicdma_intr.o)
 .bss           0x00039256        0x0 ../../wlan_bsp_cpu_high/mb_high/lib\libxil.a(xaxicdma_sinit.o)
 .bss           0x00039256        0x0 ../../wlan_bsp_cpu_high/mb_high/lib\libxil.a(xaxidma.o)
 .bss           0x00039256        0x0 ../../wlan_bsp_cpu_high/mb_high/lib\libxil.a(xaxidma_bd.o)
 .bss           0x00039256        0x0 ../../wlan_bsp_cpu_high/mb_high/lib\libxil.a(xaxidma_bdring.o)
 .bss           0x00039256        0x0 ../../wlan_bsp_cpu_high/mb_high/lib\libxil.a(xaxidma_sinit.o)
 .bss           0x00039256        0x0 ../../wlan_bsp_cpu_high/mb_high/lib\libxil.a(xaxiethernet.o)
 .bss           0x00039256        0x0 ../../wlan_bsp_cpu_high/mb_high/lib\libxil.a(xaxiethernet_sinit.o)
 .bss           0x00039256        0x0 ../../wlan_bsp_cpu_high/mb_high/lib\libxil.a(xintc.o)
 .bss           0x00039256        0x0 ../../wlan_bsp_cpu_high/mb_high/lib\libxil.a(xintc_g.o)
 .bss           0x00039256        0x0 ../../wlan_bsp_cpu_high/mb_high/lib\libxil.a(xintc_l.o)
 .bss           0x00039256        0x0 ../../wlan_bsp_cpu_high/mb_high/lib\libxil.a(xgpio.o)
 .bss           0x00039256        0x0 ../../wlan_bsp_cpu_high/mb_high/lib\libxil.a(xgpio_intr.o)
 .bss           0x00039256        0x0 ../../wlan_bsp_cpu_high/mb_high/lib\libxil.a(xgpio_sinit.o)
 .bss           0x00039256        0x0 ../../wlan_bsp_cpu_high/mb_high/lib\libxil.a(xtmrctr.o)
 .bss           0x00039256        0x0 ../../wlan_bsp_cpu_high/mb_high/lib\libxil.a(xtmrctr_g.o)
 .bss           0x00039256        0x0 ../../wlan_bsp_cpu_high/mb_high/lib\libxil.a(xtmrctr_intr.o)
 .bss           0x00039256        0x0 ../../wlan_bsp_cpu_high/mb_high/lib\libxil.a(xtmrctr_l.o)
 .bss           0x00039256        0x0 ../../wlan_bsp_cpu_high/mb_high/lib\libxil.a(xtmrctr_options.o)
 .bss           0x00039256        0x0 ../../wlan_bsp_cpu_high/mb_high/lib\libxil.a(xuartlite.o)
 .bss           0x00039256        0x0 ../../wlan_bsp_cpu_high/mb_high/lib\libxil.a(xuartlite_intr.o)
 .bss           0x00039256        0x0 ../../wlan_bsp_cpu_high/mb_high/lib\libxil.a(xuartlite_l.o)
 .bss           0x00039256        0x0 ../../wlan_bsp_cpu_high/mb_high/lib\libxil.a(xuartlite_sinit.o)
 .bss           0x00039256        0x0 ../../wlan_bsp_cpu_high/mb_high/lib\libxil.a(xuartlite_stats.o)
 .bss           0x00039256        0x0 ../../wlan_bsp_cpu_high/mb_high/lib\libxil.a(xmbox.o)
 .bss           0x00039256        0x0 ../../wlan_bsp_cpu_high/mb_high/lib\libxil.a(xmbox_sinit.o)
 .bss           0x00039256        0x0 ../../wlan_bsp_cpu_high/mb_high/lib\libxil.a(xmutex.o)
 .bss           0x00039256        0x0 ../../wlan_bsp_cpu_high/mb_high/lib\libxil.a(xmutex_sinit.o)
 .bss           0x00039256        0x0 ../../wlan_bsp_cpu_high/mb_high/lib\libxil.a(w3_iic_eeprom.o)
 .bss           0x00039256        0x0 ../../wlan_bsp_cpu_high/mb_high/lib\libxil.a(print.o)
 *fill*         0x00039256        0x2 00
 .bss           0x00039258        0x4 ../../wlan_bsp_cpu_high/mb_high/lib\libxil.a(xbasic_types.o)
 .bss           0x0003925c        0x0 ../../wlan_bsp_cpu_high/mb_high/lib\libxil.a(microblaze_disable_exceptions.o)
 .bss           0x0003925c        0x0 ../../wlan_bsp_cpu_high/mb_high/lib\libxil.a(microblaze_disable_interrupts.o)
 .bss           0x0003925c        0x0 ../../wlan_bsp_cpu_high/mb_high/lib\libxil.a(microblaze_enable_exceptions.o)
 .bss           0x0003925c        0x0 ../../wlan_bsp_cpu_high/mb_high/lib\libxil.a(microblaze_enable_interrupts.o)
 .bss           0x0003925c        0x0 ../../wlan_bsp_cpu_high/mb_high/lib\libxil.a(microblaze_invalidate_dcache_range.o)
 .bss           0x0003925c        0x4 ../../wlan_bsp_cpu_high/mb_high/lib\libxil.a(xil_assert.o)
 .bss           0x00039260        0x0 ../../wlan_bsp_cpu_high/mb_high/lib\libxil.a(WARP_ip_udp_config.o)
 .bss           0x00039260        0x0 ../../wlan_bsp_cpu_high/mb_high/lib\libxil.a(xaxicdma_bd.o)
 .bss           0x00039260        0x0 ../../wlan_bsp_cpu_high/mb_high/lib\libxil.a(xaxicdma_g.o)
 .bss           0x00039260        0x0 ../../wlan_bsp_cpu_high/mb_high/lib\libxil.a(xaxidma_g.o)
 .bss           0x00039260        0x0 ../../wlan_bsp_cpu_high/mb_high/lib\libxil.a(xaxiethernet_g.o)
 .bss           0x00039260        0x0 ../../wlan_bsp_cpu_high/mb_high/lib\libxil.a(xgpio_g.o)
 .bss           0x00039260        0x0 ../../wlan_bsp_cpu_high/mb_high/lib\libxil.a(xuartlite_g.o)
 .bss           0x00039260        0x0 ../../wlan_bsp_cpu_high/mb_high/lib\libxil.a(xmbox_g.o)
 .bss           0x00039260        0x0 ../../wlan_bsp_cpu_high/mb_high/lib\libxil.a(xmutex_g.o)
 .bss           0x00039260        0x0 c:/xilinx/14.4/ise_ds/edk/gnu/microblaze/nt64/bin/../lib/gcc/microblaze-xilinx-elf/4.6.2/bs/m/le\libgcc.a(_fixunssfsi.o)
 .bss           0x00039260        0x0 c:/xilinx/14.4/ise_ds/edk/gnu/microblaze/nt64/bin/../lib/gcc/microblaze-xilinx-elf/4.6.2/bs/m/le\libgcc.a(_floatundisf.o)
 .bss           0x00039260        0x0 c:/xilinx/14.4/ise_ds/edk/gnu/microblaze/nt64/bin/../lib/gcc/microblaze-xilinx-elf/4.6.2/bs/m/le\libgcc.a(_udivdi3.o)
 .bss           0x00039260        0x0 c:/xilinx/14.4/ise_ds/edk/gnu/microblaze/nt64/bin/../lib/gcc/microblaze-xilinx-elf/4.6.2/bs/m/le\libgcc.a(_addsub_sf.o)
 .bss           0x00039260        0x0 c:/xilinx/14.4/ise_ds/edk/gnu/microblaze/nt64/bin/../lib/gcc/microblaze-xilinx-elf/4.6.2/bs/m/le\libgcc.a(_mul_sf.o)
 .bss           0x00039260        0x0 c:/xilinx/14.4/ise_ds/edk/gnu/microblaze/nt64/bin/../lib/gcc/microblaze-xilinx-elf/4.6.2/bs/m/le\libgcc.a(_div_sf.o)
 .bss           0x00039260        0x0 c:/xilinx/14.4/ise_ds/edk/gnu/microblaze/nt64/bin/../lib/gcc/microblaze-xilinx-elf/4.6.2/bs/m/le\libgcc.a(_ge_sf.o)
 .bss           0x00039260        0x0 c:/xilinx/14.4/ise_ds/edk/gnu/microblaze/nt64/bin/../lib/gcc/microblaze-xilinx-elf/4.6.2/bs/m/le\libgcc.a(_sf_to_si.o)
 .bss           0x00039260        0x0 c:/xilinx/14.4/ise_ds/edk/gnu/microblaze/nt64/bin/../lib/gcc/microblaze-xilinx-elf/4.6.2/bs/m/le\libgcc.a(_thenan_sf.o)
 .bss           0x00039260        0x0 c:/xilinx/14.4/ise_ds/edk/gnu/microblaze/nt64/bin/../lib/gcc/microblaze-xilinx-elf/4.6.2/bs/m/le\libgcc.a(_usi_to_sf.o)
 .bss           0x00039260        0x0 c:/xilinx/14.4/ise_ds/edk/gnu/microblaze/nt64/bin/../lib/gcc/microblaze-xilinx-elf/4.6.2/bs/m/le\libgcc.a(_addsub_df.o)
 .bss           0x00039260        0x0 c:/xilinx/14.4/ise_ds/edk/gnu/microblaze/nt64/bin/../lib/gcc/microblaze-xilinx-elf/4.6.2/bs/m/le\libgcc.a(_mul_df.o)
 .bss           0x00039260        0x0 c:/xilinx/14.4/ise_ds/edk/gnu/microblaze/nt64/bin/../lib/gcc/microblaze-xilinx-elf/4.6.2/bs/m/le\libgcc.a(_df_to_sf.o)
 .bss           0x00039260        0x0 c:/xilinx/14.4/ise_ds/edk/gnu/microblaze/nt64/bin/../lib/gcc/microblaze-xilinx-elf/4.6.2/bs/m/le\libgcc.a(_thenan_df.o)
 .bss           0x00039260        0x0 c:/xilinx/14.4/ise_ds/edk/gnu/microblaze/nt64/bin/../lib/gcc/microblaze-xilinx-elf/4.6.2/bs/m/le\libgcc.a(_usi_to_df.o)
 .bss           0x00039260        0x0 c:/xilinx/14.4/ise_ds/edk/gnu/microblaze/nt64/bin/../lib/gcc/microblaze-xilinx-elf/4.6.2/bs/m/le\libgcc.a(modsi3.o)
 .bss           0x00039260        0x0 c:/xilinx/14.4/ise_ds/edk/gnu/microblaze/nt64/bin/../lib/gcc/microblaze-xilinx-elf/4.6.2/bs/m/le\libgcc.a(udivsi3.o)
 .bss           0x00039260        0x0 c:/xilinx/14.4/ise_ds/edk/gnu/microblaze/nt64/bin/../lib/gcc/microblaze-xilinx-elf/4.6.2/bs/m/le\libgcc.a(umodsi3.o)
 .bss           0x00039260        0x0 c:/xilinx/14.4/ise_ds/edk/gnu/microblaze/nt64/bin/../lib/gcc/microblaze-xilinx-elf/4.6.2/bs/m/le\libgcc.a(_muldi3.o)
 .bss           0x00039260        0x0 c:/xilinx/14.4/ise_ds/edk/gnu/microblaze/nt64/bin/../lib/gcc/microblaze-xilinx-elf/4.6.2/bs/m/le\libgcc.a(_clz.o)
 .bss           0x00039260        0x0 c:/xilinx/14.4/ise_ds/edk/gnu/microblaze/nt64/bin/../lib/gcc/microblaze-xilinx-elf/4.6.2/bs/m/le\libgcc.a(_clzsi2.o)
 .bss           0x00039260        0x0 c:/xilinx/14.4/ise_ds/edk/gnu/microblaze/nt64/bin/../lib/gcc/microblaze-xilinx-elf/4.6.2/bs/m/le\libgcc.a(_pack_sf.o)
 .bss           0x00039260        0x0 c:/xilinx/14.4/ise_ds/edk/gnu/microblaze/nt64/bin/../lib/gcc/microblaze-xilinx-elf/4.6.2/bs/m/le\libgcc.a(_unpack_sf.o)
 .bss           0x00039260        0x0 c:/xilinx/14.4/ise_ds/edk/gnu/microblaze/nt64/bin/../lib/gcc/microblaze-xilinx-elf/4.6.2/bs/m/le\libgcc.a(_fpcmp_parts_sf.o)
 .bss           0x00039260        0x0 c:/xilinx/14.4/ise_ds/edk/gnu/microblaze/nt64/bin/../lib/gcc/microblaze-xilinx-elf/4.6.2/bs/m/le\libgcc.a(_make_sf.o)
 .bss           0x00039260        0x0 c:/xilinx/14.4/ise_ds/edk/gnu/microblaze/nt64/bin/../lib/gcc/microblaze-xilinx-elf/4.6.2/bs/m/le\libgcc.a(_pack_df.o)
 .bss           0x00039260        0x0 c:/xilinx/14.4/ise_ds/edk/gnu/microblaze/nt64/bin/../lib/gcc/microblaze-xilinx-elf/4.6.2/bs/m/le\libgcc.a(_unpack_df.o)
 .bss           0x00039260        0x0 c:/xilinx/14.4/ise_ds/edk/gnu/microblaze/nt64/bin/../lib/gcc/microblaze-xilinx-elf/4.6.2/bs/m/le\libgcc.a(_lshrdi3.o)
 .bss           0x00039260        0x0 c:/xilinx/14.4/ise_ds/edk/gnu/microblaze/nt64/bin/../lib/gcc/microblaze-xilinx-elf/4.6.2/bs/m/le\libgcc.a(_ashldi3.o)
 .bss           0x00039260        0x0 ../../wlan_bsp_cpu_high/mb_high/lib\libc.a(lib_a-ctype_.o)
 .bss           0x00039260        0x0 ../../wlan_bsp_cpu_high/mb_high/lib\libc.a(lib_a-exit.o)
 .bss           0x00039260        0x0 ../../wlan_bsp_cpu_high/mb_high/lib\libc.a(lib_a-impure.o)
 .bss           0x00039260        0x0 ../../wlan_bsp_cpu_high/mb_high/lib\libc.a(lib_a-malloc.o)
 .bss           0x00039260       0x34 ../../wlan_bsp_cpu_high/mb_high/lib\libc.a(lib_a-mallocr.o)
                0x00039260                __malloc_current_mallinfo
                0x00039288                __malloc_max_total_mem
                0x0003928c                __malloc_max_sbrked_mem
                0x00039290                __malloc_top_pad
 .bss           0x00039294        0x0 ../../wlan_bsp_cpu_high/mb_high/lib\libc.a(lib_a-memcmp.o)
 .bss           0x00039294        0x0 ../../wlan_bsp_cpu_high/mb_high/lib\libc.a(lib_a-memcpy.o)
 .bss           0x00039294        0x0 ../../wlan_bsp_cpu_high/mb_high/lib\libc.a(lib_a-memmove.o)
 .bss           0x00039294        0x0 ../../wlan_bsp_cpu_high/mb_high/lib\libc.a(lib_a-memset.o)
 .bss           0x00039294        0x0 ../../wlan_bsp_cpu_high/mb_high/lib\libc.a(lib_a-mlock.o)
 .bss           0x00039294        0x0 ../../wlan_bsp_cpu_high/mb_high/lib\libc.a(lib_a-mstats.o)
 .bss           0x00039294        0x0 ../../wlan_bsp_cpu_high/mb_high/lib\libc.a(lib_a-rand.o)
 .bss           0x00039294        0x0 ../../wlan_bsp_cpu_high/mb_high/lib\libc.a(lib_a-realloc.o)
 .bss           0x00039294        0x0 ../../wlan_bsp_cpu_high/mb_high/lib\libc.a(lib_a-reallocr.o)
 .bss           0x00039294        0x0 ../../wlan_bsp_cpu_high/mb_high/lib\libc.a(lib_a-sbrkr.o)
 .bss           0x00039294        0x0 ../../wlan_bsp_cpu_high/mb_high/lib\libc.a(lib_a-strcmp.o)
 .bss           0x00039294        0x0 ../../wlan_bsp_cpu_high/mb_high/lib\libc.a(lib_a-strcpy.o)
 .bss           0x00039294        0x0 ../../wlan_bsp_cpu_high/mb_high/lib\libc.a(lib_a-strlen.o)
 .bss           0x00039294        0x0 ../../wlan_bsp_cpu_high/mb_high/lib\libc.a(lib_a-strncmp.o)
 .bss           0x00039294        0x0 ../../wlan_bsp_cpu_high/mb_high/lib\libc.a(lib_a-strncpy.o)
 .bss           0x00039294        0x0 ../../wlan_bsp_cpu_high/mb_high/lib\libc.a(lib_a-strndup.o)
 .bss           0x00039294        0x0 ../../wlan_bsp_cpu_high/mb_high/lib\libc.a(lib_a-strndup_r.o)
 .bss           0x00039294        0x0 ../../wlan_bsp_cpu_high/mb_high/lib\libc.a(lib_a-strnlen.o)
 .bss           0x00039294        0x0 ../../wlan_bsp_cpu_high/mb_high/lib\libc.a(lib_a-strrchr.o)
 .bss           0x00039294        0x0 ../../wlan_bsp_cpu_high/mb_high/lib\libc.a(lib_a-__call_atexit.o)
 .bss           0x00039294        0x0 ../../wlan_bsp_cpu_high/mb_high/lib\libc.a(lib_a-findfp.o)
 .bss           0x00039294        0x0 ../../wlan_bsp_cpu_high/mb_high/lib\libc.a(lib_a-fiprintf.o)
 .bss           0x00039294        0x0 ../../wlan_bsp_cpu_high/mb_high/lib\libc.a(lib_a-freer.o)
 .bss           0x00039294        0x0 ../../wlan_bsp_cpu_high/mb_high/lib\libc.a(lib_a-fwalk.o)
 .bss           0x00039294        0x0 ../../wlan_bsp_cpu_high/mb_high/lib\libc.a(lib_a-mallinfor.o)
 .bss           0x00039294        0x0 ../../wlan_bsp_cpu_high/mb_high/lib\libc.a(lib_a-malloptr.o)
 .bss           0x00039294        0x0 ../../wlan_bsp_cpu_high/mb_high/lib\libc.a(lib_a-mallstatsr.o)
 .bss           0x00039294        0x0 ../../wlan_bsp_cpu_high/mb_high/lib\libc.a(lib_a-reent.o)
 .bss           0x00039294        0x0 ../../wlan_bsp_cpu_high/mb_high/lib\libc.a(lib_a-stdio.o)
 .bss           0x00039294        0x0 ../../wlan_bsp_cpu_high/mb_high/lib\libc.a(lib_a-strchr.o)
 .bss           0x00039294        0x0 ../../wlan_bsp_cpu_high/mb_high/lib\libc.a(lib_a-vfiprintf.o)
 .bss           0x00039294        0x0 ../../wlan_bsp_cpu_high/mb_high/lib\libc.a(lib_a-writer.o)
 .bss           0x00039294        0x0 ../../wlan_bsp_cpu_high/mb_high/lib\libc.a(lib_a-wsetup.o)
 .bss           0x00039294        0x0 ../../wlan_bsp_cpu_high/mb_high/lib\libc.a(lib_a-closer.o)
 .bss           0x00039294        0x0 ../../wlan_bsp_cpu_high/mb_high/lib\libc.a(lib_a-fclose.o)
 .bss           0x00039294        0x0 ../../wlan_bsp_cpu_high/mb_high/lib\libc.a(lib_a-fflush.o)
 .bss           0x00039294        0x0 ../../wlan_bsp_cpu_high/mb_high/lib\libc.a(lib_a-fputwc.o)
 .bss           0x00039294        0x0 ../../wlan_bsp_cpu_high/mb_high/lib\libc.a(lib_a-fvwrite.o)
 .bss           0x00039294        0xc ../../wlan_bsp_cpu_high/mb_high/lib\libc.a(lib_a-locale.o)
                0x00039294                _PathLocale
                0x00039298                __mlocale_changed
                0x0003929c                __nlocale_changed
 .bss           0x000392a0        0x0 ../../wlan_bsp_cpu_high/mb_high/lib\libc.a(lib_a-lseekr.o)
 .bss           0x000392a0        0x0 ../../wlan_bsp_cpu_high/mb_high/lib\libc.a(lib_a-makebuf.o)
 .bss           0x000392a0        0x0 ../../wlan_bsp_cpu_high/mb_high/lib\libc.a(lib_a-memchr.o)
 .bss           0x000392a0        0x0 ../../wlan_bsp_cpu_high/mb_high/lib\libc.a(lib_a-readr.o)
 .bss           0x000392a0        0x0 ../../wlan_bsp_cpu_high/mb_high/lib\libc.a(lib_a-wbuf.o)
 .bss           0x000392a0        0x0 ../../wlan_bsp_cpu_high/mb_high/lib\libc.a(lib_a-wcrtomb.o)
 .bss           0x000392a0        0x0 ../../wlan_bsp_cpu_high/mb_high/lib\libc.a(lib_a-wctomb_r.o)
 .bss           0x000392a0        0x0 ../../wlan_bsp_cpu_high/mb_high/lib\libc.a(lib_a-fstatr.o)
 .bss           0x000392a0        0x0 ../../wlan_bsp_cpu_high/mb_high/lib\libc.a(lib_a-isattyr.o)
 .bss           0x000392a0        0x0 ../../wlan_bsp_cpu_high/mb_high/lib\libxil.a(fstat.o)
 .bss           0x000392a0        0x0 ../../wlan_bsp_cpu_high/mb_high/lib\libxil.a(isatty.o)
 .bss           0x000392a0        0x0 ../../wlan_bsp_cpu_high/mb_high/lib\libxil.a(lseek.o)
 .bss           0x000392a0        0x4 ../../wlan_bsp_cpu_high/mb_high/lib\libxil.a(sbrk.o)
 .bss           0x000392a4        0x0 ../../wlan_bsp_cpu_high/mb_high/lib\libxil.a(write.o)
 .bss           0x000392a4        0x0 ../../wlan_bsp_cpu_high/mb_high/lib\libxil.a(read.o)
 .bss           0x000392a4        0x0 ../../wlan_bsp_cpu_high/mb_high/lib\libxil.a(close.o)
 .bss           0x000392a4        0x0 ../../wlan_bsp_cpu_high/mb_high/lib\libxil.a(errno.o)
 .bss           0x000392a4        0x0 ../../wlan_bsp_cpu_high/mb_high/lib\libxil.a(inbyte.o)
 .bss           0x000392a4        0x0 c:/xilinx/14.4/ise_ds/edk/gnu/microblaze/nt64/bin/../lib/gcc/microblaze-xilinx-elf/4.6.2/bs/m/le\libgcc.a(_umoddi3.o)
 .bss           0x000392a4        0x0 c:/xilinx/14.4/ise_ds/edk/gnu/microblaze/nt64/bin/../lib/gcc/microblaze-xilinx-elf/4.6.2/bs/m/le/crtend.o
 .bss           0x000392a4        0x0 c:/xilinx/14.4/ise_ds/edk/gnu/microblaze/nt64/bin/../lib/gcc/microblaze-xilinx-elf/4.6.2/bs/m/le/crtn.o
 *(.bss.*)
 *(.gnu.linkonce.b.*)
 *(COMMON)
 COMMON         0x000392a4       0x34 ./wlan_mac_high_framework/wlan_exp_node.o
                0x000392a4                node_info
 COMMON         0x000392d8        0x4 ./wlan_mac_high_framework/wlan_exp_transport.o
                0x000392d8                process_hton_msg_callback
 COMMON         0x000392dc        0xc ./wlan_mac_high_framework/wlan_mac_addr_filter.o
                0x000392dc                addr_filter
 COMMON         0x000392e8      0x3a9 ./wlan_mac_high_framework/wlan_mac_high.o
                0x000392e8                UartLite
                0x00039334                pb_d_callback
                0x00039338                low_param_channel
                0x0003933c                cdma_inst
                0x000394a0                mpdu_tx_high_done_callback
                0x000394a4                beacon_tx_done_callback
                0x000394a8                low_param_random_seed
                0x000394ac                low_param_rx_ant_mode
                0x000394b0                ipc_msg_from_low
                0x000394b8                cpu_low_reboot_callback
                0x000394bc                tx_poll_callback
                0x000394c0                low_param_dsss_en
                0x000394c4                hw_info
                0x000394c8                low_param_rx_filter
                0x000394cc                pb_u_callback
                0x000394d0                ipc_msg_from_low_payload
                0x00039660                uart_callback
                0x00039664                pb_m_callback
                0x00039668                mpdu_rx_callback
                0x0003966c                mpdu_tx_dequeue_callback
                0x00039670                dram_present
                0x00039674                InterruptController
                0x00039688                mpdu_tx_low_done_callback
                0x0003968c                low_param_tx_ctrl_pow
                0x00039690                uart_rx_buffer
 *fill*         0x00039691        0x3 00
 COMMON         0x00039694       0x1c ./wlan_mac_high_framework/wlan_mac_scan.o
                0x00039694                tx_probe_request_callback
                0x00039698                gl_scan_parameters
                0x000396ac                scan_state_change_callback
 COMMON         0x000396b0       0x38 ./src/wlan_mac_ap.o
                0x000396b0                default_unicast_data_tx_params
                0x000396b8                authenticated_unassociated_stations
                0x000396c4                pause_data_queue
                0x000396c8                active_bss_info
                0x000396cc                mac_param_chan
                0x000396d0                default_multicast_data_tx_params
                0x000396d8                default_multicast_mgmt_tx_params
                0x000396e0                default_unicast_mgmt_tx_params
 COMMON         0x000396e8     0x151a ./src/wlan_mac_chan_util.o
                0x000396e8                time_elapsed
                0x000396f0                chan_state
                0x00039704                chan_info
                0x00039c1c                sort_mode
                0x00039c1d                ap_mode
                0x00039c20                mpdu_data
                0x0003abc4                chan_data
 *fill*         0x0003ac02        0x2 00
 COMMON         0x0003ac04      0x17c ../../wlan_bsp_cpu_high/mb_high/lib\libxil.a(WARP_ip_udp_init.o)
                0x0003ac04                ETH_send_buffers
                0x0003ac3c                ETH_sockets
                0x0003acb4                ETH_allocated_send_buffers
                0x0003acb8                ETH_arp_cache
 COMMON         0x0003ad80        0x8 ../../wlan_bsp_cpu_high/mb_high/lib\libxil.a(WARP_ip_udp_eth.o)
                0x0003ad80                interrupt_disable_callback
                0x0003ad84                interrupt_enable_callback
 COMMON         0x0003ad88       0x2c ../../wlan_bsp_cpu_high/mb_high/lib\libxil.a(xintc.o)
                0x0003ad88                XIntc_BitPosMask
 COMMON         0x0003adb4        0x4 ../../wlan_bsp_cpu_high/mb_high/lib\libxil.a(xbasic_types.o)
                0x0003adb4                XAssertStatus
 COMMON         0x0003adb8        0x4 ../../wlan_bsp_cpu_high/mb_high/lib\libxil.a(xil_assert.o)
                0x0003adb8                Xil_AssertStatus
 COMMON         0x0003adbc      0x794 ../../wlan_bsp_cpu_high/mb_high/lib\libxil.a(WARP_ip_udp_config.o)
                0x0003adbc                ETH_1_instance
                0x0003adf0                ETH_1_recv_buffers
                0x0003ae44                eth_device
                0x0003aed4                ETH_1_dma_instance
 COMMON         0x0003b550        0x4 ../../wlan_bsp_cpu_high/mb_high/lib\libc.a(lib_a-reent.o)
                0x0003b550                errno
                0x0003b554                . = ALIGN (0x4)
                0x0003b554                __bss_end = .
                0x000387c0                _SDA_BASE_ = (__sdata_start + ((__sbss_end - __sdata_start) / 0x2))
                0x00037f60                _SDA2_BASE_ = (__sdata2_start + ((__sbss2_end - __sdata2_start) / 0x2))

.heap           0x0003b554     0x2004
                0x0003b558                . = ALIGN (0x8)
 *fill*         0x0003b554        0x4 00
                0x0003b558                _heap = .
                0x0003b558                _heap_start = .
                0x0003d558                . = (. + _HEAP_SIZE)
 *fill*         0x0003b558     0x2000 00
                0x0003d558                _heap_end = .

.stack          0x0003d558     0x1000
                0x0003d558                _stack_end = .
                0x0003e558                . = (. + _STACK_SIZE)
 *fill*         0x0003d558     0x1000 00
                0x0003e558                . = ALIGN (0x8)
                0x0003e558                _stack = .
                0x0003e558                __stack = _stack
                0x0003e558                _end = .
LOAD ./wlan_mac_high_framework/wlan_exp_common.o
LOAD ./wlan_mac_high_framework/wlan_exp_node.o
LOAD ./wlan_mac_high_framework/wlan_exp_transport.o
LOAD ./wlan_mac_high_framework/wlan_exp_user.o
LOAD ./wlan_mac_high_framework/wlan_mac_addr_filter.o
LOAD ./wlan_mac_high_framework/wlan_mac_bss_info.o
LOAD ./wlan_mac_high_framework/wlan_mac_dl_list.o
LOAD ./wlan_mac_high_framework/wlan_mac_entries.o
LOAD ./wlan_mac_high_framework/wlan_mac_eth_util.o
LOAD ./wlan_mac_high_framework/wlan_mac_event_log.o
LOAD ./wlan_mac_high_framework/wlan_mac_high.o
LOAD ./wlan_mac_high_framework/wlan_mac_ltg.o
LOAD ./wlan_mac_high_framework/wlan_mac_packet_types.o
LOAD ./wlan_mac_high_framework/wlan_mac_queue.o
LOAD ./wlan_mac_high_framework/wlan_mac_scan.o
LOAD ./wlan_mac_high_framework/wlan_mac_schedule.o
LOAD ./wlan_mac_high_framework/wlan_mac_station_info.o
LOAD ./wlan_mac_common/wlan_mac_common.o
LOAD ./wlan_mac_common/wlan_mac_mailbox_util.o
LOAD ./wlan_mac_common/wlan_mac_pkt_buf_util.o
LOAD ./wlan_mac_common/wlan_mac_sysmon_util.o
LOAD ./wlan_mac_common/wlan_mac_time_util.o
LOAD ./wlan_mac_common/wlan_mac_userio_util.o
LOAD ./src/wlan_exp_node_ap.o
LOAD ./src/wlan_mac_ap.o
LOAD ./src/wlan_mac_ap_uart_menu.o
LOAD ./src/wlan_mac_chan_util.o
START GROUP
LOAD ../../wlan_bsp_cpu_high/mb_high/lib\libxil.a
LOAD c:/xilinx/14.4/ise_ds/edk/gnu/microblaze/nt64/bin/../lib/gcc/microblaze-xilinx-elf/4.6.2/bs/m/le\libgcc.a
LOAD ../../wlan_bsp_cpu_high/mb_high/lib\libc.a
END GROUP
LOAD c:/xilinx/14.4/ise_ds/edk/gnu/microblaze/nt64/bin/../lib/gcc/microblaze-xilinx-elf/4.6.2/bs/m/le\libgcc.a
START GROUP
LOAD ../../wlan_bsp_cpu_high/mb_high/lib\libxil.a
LOAD ../../wlan_bsp_cpu_high/mb_high/lib\libc.a
LOAD ../../wlan_bsp_cpu_high/mb_high/lib\libm.a
END GROUP
LOAD c:/xilinx/14.4/ise_ds/edk/gnu/microblaze/nt64/bin/../lib/gcc/microblaze-xilinx-elf/4.6.2/bs/m/le\libgcc.a
LOAD c:/xilinx/14.4/ise_ds/edk/gnu/microblaze/nt64/bin/../lib/gcc/microblaze-xilinx-elf/4.6.2/bs/m/le/crtend.o
LOAD c:/xilinx/14.4/ise_ds/edk/gnu/microblaze/nt64/bin/../lib/gcc/microblaze-xilinx-elf/4.6.2/bs/m/le/crtn.o
OUTPUT(wlan_mac_high_ap.elf elf32-microblazeel)

.debug_line     0x00000000    0x22f46
 .debug_line    0x00000000       0xaa c:/xilinx/14.4/ise_ds/edk/gnu/microblaze/nt64/bin/../lib/gcc/microblaze-xilinx-elf/4.6.2/../../../../microblaze-xilinx-elf/lib/bs/m/le/crt0.o
 .debug_line    0x000000aa       0x75 c:/xilinx/14.4/ise_ds/edk/gnu/microblaze/nt64/bin/../lib/gcc/microblaze-xilinx-elf/4.6.2/bs/m/le/crti.o
 .debug_line    0x0000011f       0x86 c:/xilinx/14.4/ise_ds/edk/gnu/microblaze/nt64/bin/../lib/gcc/microblaze-xilinx-elf/4.6.2/../../../../microblaze-xilinx-elf/lib/bs/m/le/crtinit.o
 .debug_line    0x000001a5      0x631 ./wlan_mac_high_framework/wlan_exp_common.o
 .debug_line    0x000007d6     0x3656 ./wlan_mac_high_framework/wlan_exp_node.o
 .debug_line    0x00003e2c      0xf01 ./wlan_mac_high_framework/wlan_exp_transport.o
 .debug_line    0x00004d2d      0x235 ./wlan_mac_high_framework/wlan_exp_user.o
 .debug_line    0x00004f62      0x407 ./wlan_mac_high_framework/wlan_mac_addr_filter.o
 .debug_line    0x00005369      0xa84 ./wlan_mac_high_framework/wlan_mac_bss_info.o
 .debug_line    0x00005ded      0x5fc ./wlan_mac_high_framework/wlan_mac_dl_list.o
 .debug_line    0x000063e9      0xe10 ./wlan_mac_high_framework/wlan_mac_entries.o
 .debug_line    0x000071f9      0xf38 ./wlan_mac_high_framework/wlan_mac_eth_util.o
 .debug_line    0x00008131      0x90d ./wlan_mac_high_framework/wlan_mac_event_log.o
 .debug_line    0x00008a3e     0x1c0a ./wlan_mac_high_framework/wlan_mac_high.o
 .debug_line    0x0000a648      0xd59 ./wlan_mac_high_framework/wlan_mac_ltg.o
 .debug_line    0x0000b3a1      0xe21 ./wlan_mac_high_framework/wlan_mac_packet_types.o
 .debug_line    0x0000c1c2      0x673 ./wlan_mac_high_framework/wlan_mac_queue.o
 .debug_line    0x0000c835      0x612 ./wlan_mac_high_framework/wlan_mac_scan.o
 .debug_line    0x0000ce47      0x8ff ./wlan_mac_high_framework/wlan_mac_schedule.o
 .debug_line    0x0000d746      0xe61 ./wlan_mac_high_framework/wlan_mac_station_info.o
 .debug_line    0x0000e5a7      0x2b6 ./wlan_mac_common/wlan_mac_common.o
 .debug_line    0x0000e85d      0x51b ./wlan_mac_common/wlan_mac_mailbox_util.o
 .debug_line    0x0000ed78      0x3d8 ./wlan_mac_common/wlan_mac_pkt_buf_util.o
 .debug_line    0x0000f150      0x1a0 ./wlan_mac_common/wlan_mac_sysmon_util.o
 .debug_line    0x0000f2f0      0x314 ./wlan_mac_common/wlan_mac_time_util.o
 .debug_line    0x0000f604      0x494 ./wlan_mac_common/wlan_mac_userio_util.o
 .debug_line    0x0000fa98      0x860 ./src/wlan_exp_node_ap.o
 .debug_line    0x000102f8     0x1f34 ./src/wlan_mac_ap.o
 .debug_line    0x0001222c      0xbf7 ./src/wlan_mac_ap_uart_menu.o
 .debug_line    0x00012e23     0x1290 ./src/wlan_mac_chan_util.o
 .debug_line    0x000140b3      0x565 ../../wlan_bsp_cpu_high/mb_high/lib\libxil.a(xil_printf.o)
 .debug_line    0x00014618       0x70 ../../wlan_bsp_cpu_high/mb_high/lib\libxil.a(_exception_handler.o)
 .debug_line    0x00014688       0x6c ../../wlan_bsp_cpu_high/mb_high/lib\libxil.a(_program_clean.o)
 .debug_line    0x000146f4       0x6b ../../wlan_bsp_cpu_high/mb_high/lib\libxil.a(_program_init.o)
 .debug_line    0x0001475f      0x10d ../../wlan_bsp_cpu_high/mb_high/lib\libxil.a(hw_exception_handler.o)
 .debug_line    0x0001486c       0xd6 ../../wlan_bsp_cpu_high/mb_high/lib\libxil.a(microblaze_interrupt_handler.o)
 .debug_line    0x00014942       0x81 ../../wlan_bsp_cpu_high/mb_high/lib\libxil.a(microblaze_interrupts_g.o)
 .debug_line    0x000149c3       0x59 ../../wlan_bsp_cpu_high/mb_high/lib\libxil.a(outbyte.o)
 .debug_line    0x00014a1c      0x129 ../../wlan_bsp_cpu_high/mb_high/lib\libxil.a(xil_exception.o)
 .debug_line    0x00014b45      0x18a ../../wlan_bsp_cpu_high/mb_high/lib\libxil.a(xil_io.o)
 .debug_line    0x00014ccf      0x2bc ../../wlan_bsp_cpu_high/mb_high/lib\libxil.a(WARP_ip_udp_init.o)
 .debug_line    0x00014f8b     0x10d5 ../../wlan_bsp_cpu_high/mb_high/lib\libxil.a(WARP_ip_udp_eth.o)
 .debug_line    0x00016060      0xb99 ../../wlan_bsp_cpu_high/mb_high/lib\libxil.a(WARP_ip_udp_ip_udp.o)
 .debug_line    0x00016bf9      0x646 ../../wlan_bsp_cpu_high/mb_high/lib\libxil.a(WARP_ip_udp_socket.o)
 .debug_line    0x0001723f      0x62a ../../wlan_bsp_cpu_high/mb_high/lib\libxil.a(xaxicdma.o)
 .debug_line    0x00017869      0xa4b ../../wlan_bsp_cpu_high/mb_high/lib\libxil.a(xaxicdma_bdring.o)
 .debug_line    0x000182b4      0x214 ../../wlan_bsp_cpu_high/mb_high/lib\libxil.a(xaxicdma_intr.o)
 .debug_line    0x000184c8       0x89 ../../wlan_bsp_cpu_high/mb_high/lib\libxil.a(xaxicdma_sinit.o)
 .debug_line    0x00018551      0x869 ../../wlan_bsp_cpu_high/mb_high/lib\libxil.a(xaxidma.o)
 .debug_line    0x00018dba      0x230 ../../wlan_bsp_cpu_high/mb_high/lib\libxil.a(xaxidma_bd.o)
 .debug_line    0x00018fea      0xbce ../../wlan_bsp_cpu_high/mb_high/lib\libxil.a(xaxidma_bdring.o)
 .debug_line    0x00019bb8       0x8f ../../wlan_bsp_cpu_high/mb_high/lib\libxil.a(xaxidma_sinit.o)
 .debug_line    0x00019c47     0x1180 ../../wlan_bsp_cpu_high/mb_high/lib\libxil.a(xaxiethernet.o)
 .debug_line    0x0001adc7       0x91 ../../wlan_bsp_cpu_high/mb_high/lib\libxil.a(xaxiethernet_sinit.o)
 .debug_line    0x0001ae58      0x961 ../../wlan_bsp_cpu_high/mb_high/lib\libxil.a(xintc.o)
 .debug_line    0x0001b7b9       0x7b ../../wlan_bsp_cpu_high/mb_high/lib\libxil.a(xintc_g.o)
 .debug_line    0x0001b834      0x261 ../../wlan_bsp_cpu_high/mb_high/lib\libxil.a(xintc_l.o)
 .debug_line    0x0001ba95      0x308 ../../wlan_bsp_cpu_high/mb_high/lib\libxil.a(xgpio.o)
 .debug_line    0x0001bd9d      0x401 ../../wlan_bsp_cpu_high/mb_high/lib\libxil.a(xgpio_intr.o)
 .debug_line    0x0001c19e       0xf6 ../../wlan_bsp_cpu_high/mb_high/lib\libxil.a(xgpio_sinit.o)
 .debug_line    0x0001c294      0x584 ../../wlan_bsp_cpu_high/mb_high/lib\libxil.a(xtmrctr.o)
 .debug_line    0x0001c818       0x60 ../../wlan_bsp_cpu_high/mb_high/lib\libxil.a(xtmrctr_g.o)
 .debug_line    0x0001c878      0x1ae ../../wlan_bsp_cpu_high/mb_high/lib\libxil.a(xtmrctr_intr.o)
 .debug_line    0x0001ca26       0x53 ../../wlan_bsp_cpu_high/mb_high/lib\libxil.a(xtmrctr_l.o)
 .debug_line    0x0001ca79      0x214 ../../wlan_bsp_cpu_high/mb_high/lib\libxil.a(xtmrctr_options.o)
 .debug_line    0x0001cc8d      0x61d ../../wlan_bsp_cpu_high/mb_high/lib\libxil.a(xuartlite.o)
 .debug_line    0x0001d2aa      0x291 ../../wlan_bsp_cpu_high/mb_high/lib\libxil.a(xuartlite_intr.o)
 .debug_line    0x0001d53b       0xa5 ../../wlan_bsp_cpu_high/mb_high/lib\libxil.a(xuartlite_l.o)
 .debug_line    0x0001d5e0       0xf2 ../../wlan_bsp_cpu_high/mb_high/lib\libxil.a(xuartlite_sinit.o)
 .debug_line    0x0001d6d2      0x194 ../../wlan_bsp_cpu_high/mb_high/lib\libxil.a(xuartlite_stats.o)
 .debug_line    0x0001d866      0x9f5 ../../wlan_bsp_cpu_high/mb_high/lib\libxil.a(xmbox.o)
 .debug_line    0x0001e25b       0x83 ../../wlan_bsp_cpu_high/mb_high/lib\libxil.a(xmbox_sinit.o)
 .debug_line    0x0001e2de      0x4b7 ../../wlan_bsp_cpu_high/mb_high/lib\libxil.a(xmutex.o)
 .debug_line    0x0001e795       0x85 ../../wlan_bsp_cpu_high/mb_high/lib\libxil.a(xmutex_sinit.o)
 .debug_line    0x0001e81a      0x89d ../../wlan_bsp_cpu_high/mb_high/lib\libxil.a(w3_iic_eeprom.o)
 .debug_line    0x0001f0b7       0x8a ../../wlan_bsp_cpu_high/mb_high/lib\libxil.a(print.o)
 .debug_line    0x0001f141       0xa8 ../../wlan_bsp_cpu_high/mb_high/lib\libxil.a(xbasic_types.o)
 .debug_line    0x0001f1e9       0x53 ../../wlan_bsp_cpu_high/mb_high/lib\libxil.a(microblaze_disable_exceptions.o)
 .debug_line    0x0001f23c       0x56 ../../wlan_bsp_cpu_high/mb_high/lib\libxil.a(microblaze_disable_interrupts.o)
 .debug_line    0x0001f292       0x52 ../../wlan_bsp_cpu_high/mb_high/lib\libxil.a(microblaze_enable_exceptions.o)
 .debug_line    0x0001f2e4       0x55 ../../wlan_bsp_cpu_high/mb_high/lib\libxil.a(microblaze_enable_interrupts.o)
 .debug_line    0x0001f339       0x61 ../../wlan_bsp_cpu_high/mb_high/lib\libxil.a(microblaze_invalidate_dcache_range.o)
 .debug_line    0x0001f39a       0x94 ../../wlan_bsp_cpu_high/mb_high/lib\libxil.a(xil_assert.o)
 .debug_line    0x0001f42e      0x2ff ../../wlan_bsp_cpu_high/mb_high/lib\libxil.a(WARP_ip_udp_config.o)
 .debug_line    0x0001f72d      0x2a7 ../../wlan_bsp_cpu_high/mb_high/lib\libxil.a(xaxicdma_bd.o)
 .debug_line    0x0001f9d4       0x65 ../../wlan_bsp_cpu_high/mb_high/lib\libxil.a(xaxicdma_g.o)
 .debug_line    0x0001fa39       0x63 ../../wlan_bsp_cpu_high/mb_high/lib\libxil.a(xaxidma_g.o)
 .debug_line    0x0001fa9c       0x6d ../../wlan_bsp_cpu_high/mb_high/lib\libxil.a(xaxiethernet_g.o)
 .debug_line    0x0001fb09       0x5c ../../wlan_bsp_cpu_high/mb_high/lib\libxil.a(xgpio_g.o)
 .debug_line    0x0001fb65       0x64 ../../wlan_bsp_cpu_high/mb_high/lib\libxil.a(xuartlite_g.o)
 .debug_line    0x0001fbc9       0x5f ../../wlan_bsp_cpu_high/mb_high/lib\libxil.a(xmbox_g.o)
 .debug_line    0x0001fc28       0x61 ../../wlan_bsp_cpu_high/mb_high/lib\libxil.a(xmutex_g.o)
 .debug_line    0x0001fc89       0xbb c:/xilinx/14.4/ise_ds/edk/gnu/microblaze/nt64/bin/../lib/gcc/microblaze-xilinx-elf/4.6.2/bs/m/le\libgcc.a(_fixunssfsi.o)
 .debug_line    0x0001fd44       0xe7 c:/xilinx/14.4/ise_ds/edk/gnu/microblaze/nt64/bin/../lib/gcc/microblaze-xilinx-elf/4.6.2/bs/m/le\libgcc.a(_floatundisf.o)
 .debug_line    0x0001fe2b      0x26f c:/xilinx/14.4/ise_ds/edk/gnu/microblaze/nt64/bin/../lib/gcc/microblaze-xilinx-elf/4.6.2/bs/m/le\libgcc.a(_udivdi3.o)
 .debug_line    0x0002009a      0x34e c:/xilinx/14.4/ise_ds/edk/gnu/microblaze/nt64/bin/../lib/gcc/microblaze-xilinx-elf/4.6.2/bs/m/le\libgcc.a(_addsub_sf.o)
 .debug_line    0x000203e8      0x289 c:/xilinx/14.4/ise_ds/edk/gnu/microblaze/nt64/bin/../lib/gcc/microblaze-xilinx-elf/4.6.2/bs/m/le\libgcc.a(_mul_sf.o)
 .debug_line    0x00020671      0x250 c:/xilinx/14.4/ise_ds/edk/gnu/microblaze/nt64/bin/../lib/gcc/microblaze-xilinx-elf/4.6.2/bs/m/le\libgcc.a(_div_sf.o)
 .debug_line    0x000208c1       0xcd c:/xilinx/14.4/ise_ds/edk/gnu/microblaze/nt64/bin/../lib/gcc/microblaze-xilinx-elf/4.6.2/bs/m/le\libgcc.a(_ge_sf.o)
 .debug_line    0x0002098e      0x11b c:/xilinx/14.4/ise_ds/edk/gnu/microblaze/nt64/bin/../lib/gcc/microblaze-xilinx-elf/4.6.2/bs/m/le\libgcc.a(_sf_to_si.o)
 .debug_line    0x00020aa9       0x7a c:/xilinx/14.4/ise_ds/edk/gnu/microblaze/nt64/bin/../lib/gcc/microblaze-xilinx-elf/4.6.2/bs/m/le\libgcc.a(_thenan_sf.o)
 .debug_line    0x00020b23      0x177 c:/xilinx/14.4/ise_ds/edk/gnu/microblaze/nt64/bin/../lib/gcc/microblaze-xilinx-elf/4.6.2/bs/m/le\libgcc.a(_usi_to_sf.o)
 .debug_line    0x00020c9a      0x3e6 c:/xilinx/14.4/ise_ds/edk/gnu/microblaze/nt64/bin/../lib/gcc/microblaze-xilinx-elf/4.6.2/bs/m/le\libgcc.a(_addsub_df.o)
 .debug_line    0x00021080      0x3f4 c:/xilinx/14.4/ise_ds/edk/gnu/microblaze/nt64/bin/../lib/gcc/microblaze-xilinx-elf/4.6.2/bs/m/le\libgcc.a(_mul_df.o)
 .debug_line    0x00021474       0xdd c:/xilinx/14.4/ise_ds/edk/gnu/microblaze/nt64/bin/../lib/gcc/microblaze-xilinx-elf/4.6.2/bs/m/le\libgcc.a(_df_to_sf.o)
 .debug_line    0x00021551       0x7a c:/xilinx/14.4/ise_ds/edk/gnu/microblaze/nt64/bin/../lib/gcc/microblaze-xilinx-elf/4.6.2/bs/m/le\libgcc.a(_thenan_df.o)
 .debug_line    0x000215cb      0x18f c:/xilinx/14.4/ise_ds/edk/gnu/microblaze/nt64/bin/../lib/gcc/microblaze-xilinx-elf/4.6.2/bs/m/le\libgcc.a(_usi_to_df.o)
 .debug_line    0x0002175a       0x8d c:/xilinx/14.4/ise_ds/edk/gnu/microblaze/nt64/bin/../lib/gcc/microblaze-xilinx-elf/4.6.2/bs/m/le\libgcc.a(modsi3.o)
 .debug_line    0x000217e7       0x91 c:/xilinx/14.4/ise_ds/edk/gnu/microblaze/nt64/bin/../lib/gcc/microblaze-xilinx-elf/4.6.2/bs/m/le\libgcc.a(udivsi3.o)
 .debug_line    0x00021878       0x95 c:/xilinx/14.4/ise_ds/edk/gnu/microblaze/nt64/bin/../lib/gcc/microblaze-xilinx-elf/4.6.2/bs/m/le\libgcc.a(umodsi3.o)
 .debug_line    0x0002190d       0xab c:/xilinx/14.4/ise_ds/edk/gnu/microblaze/nt64/bin/../lib/gcc/microblaze-xilinx-elf/4.6.2/bs/m/le\libgcc.a(_muldi3.o)
 .debug_line    0x000219b8       0x60 c:/xilinx/14.4/ise_ds/edk/gnu/microblaze/nt64/bin/../lib/gcc/microblaze-xilinx-elf/4.6.2/bs/m/le\libgcc.a(_clz.o)
 .debug_line    0x00021a18       0xd1 c:/xilinx/14.4/ise_ds/edk/gnu/microblaze/nt64/bin/../lib/gcc/microblaze-xilinx-elf/4.6.2/bs/m/le\libgcc.a(_clzsi2.o)
 .debug_line    0x00021ae9      0x221 c:/xilinx/14.4/ise_ds/edk/gnu/microblaze/nt64/bin/../lib/gcc/microblaze-xilinx-elf/4.6.2/bs/m/le\libgcc.a(_pack_sf.o)
 .debug_line    0x00021d0a      0x159 c:/xilinx/14.4/ise_ds/edk/gnu/microblaze/nt64/bin/../lib/gcc/microblaze-xilinx-elf/4.6.2/bs/m/le\libgcc.a(_unpack_sf.o)
 .debug_line    0x00021e63      0x15f c:/xilinx/14.4/ise_ds/edk/gnu/microblaze/nt64/bin/../lib/gcc/microblaze-xilinx-elf/4.6.2/bs/m/le\libgcc.a(_fpcmp_parts_sf.o)
 .debug_line    0x00021fc2       0xbd c:/xilinx/14.4/ise_ds/edk/gnu/microblaze/nt64/bin/../lib/gcc/microblaze-xilinx-elf/4.6.2/bs/m/le\libgcc.a(_make_sf.o)
 .debug_line    0x0002207f      0x23d c:/xilinx/14.4/ise_ds/edk/gnu/microblaze/nt64/bin/../lib/gcc/microblaze-xilinx-elf/4.6.2/bs/m/le\libgcc.a(_pack_df.o)
 .debug_line    0x000222bc      0x1a1 c:/xilinx/14.4/ise_ds/edk/gnu/microblaze/nt64/bin/../lib/gcc/microblaze-xilinx-elf/4.6.2/bs/m/le\libgcc.a(_unpack_df.o)
 .debug_line    0x0002245d       0xdd c:/xilinx/14.4/ise_ds/edk/gnu/microblaze/nt64/bin/../lib/gcc/microblaze-xilinx-elf/4.6.2/bs/m/le\libgcc.a(_lshrdi3.o)
 .debug_line    0x0002253a       0xdd c:/xilinx/14.4/ise_ds/edk/gnu/microblaze/nt64/bin/../lib/gcc/microblaze-xilinx-elf/4.6.2/bs/m/le\libgcc.a(_ashldi3.o)
 .debug_line    0x00022617       0xca ../../wlan_bsp_cpu_high/mb_high/lib\libxil.a(fstat.o)
 .debug_line    0x000226e1       0x6b ../../wlan_bsp_cpu_high/mb_high/lib\libxil.a(isatty.o)
 .debug_line    0x0002274c       0xb8 ../../wlan_bsp_cpu_high/mb_high/lib\libxil.a(lseek.o)
 .debug_line    0x00022804       0xb3 ../../wlan_bsp_cpu_high/mb_high/lib\libxil.a(sbrk.o)
 .debug_line    0x000228b7       0xb2 ../../wlan_bsp_cpu_high/mb_high/lib\libxil.a(write.o)
 .debug_line    0x00022969       0xb1 ../../wlan_bsp_cpu_high/mb_high/lib\libxil.a(read.o)
 .debug_line    0x00022a1a       0x6a ../../wlan_bsp_cpu_high/mb_high/lib\libxil.a(close.o)
 .debug_line    0x00022a84      0x15f ../../wlan_bsp_cpu_high/mb_high/lib\libxil.a(errno.o)
 .debug_line    0x00022be3       0x58 ../../wlan_bsp_cpu_high/mb_high/lib\libxil.a(inbyte.o)
 .debug_line    0x00022c3b      0x298 c:/xilinx/14.4/ise_ds/edk/gnu/microblaze/nt64/bin/../lib/gcc/microblaze-xilinx-elf/4.6.2/bs/m/le\libgcc.a(_umoddi3.o)
 .debug_line    0x00022ed3       0x73 c:/xilinx/14.4/ise_ds/edk/gnu/microblaze/nt64/bin/../lib/gcc/microblaze-xilinx-elf/4.6.2/bs/m/le/crtn.o

.debug_info     0x00000000    0x29f65
 .debug_info    0x00000000       0xb2 c:/xilinx/14.4/ise_ds/edk/gnu/microblaze/nt64/bin/../lib/gcc/microblaze-xilinx-elf/4.6.2/../../../../microblaze-xilinx-elf/lib/bs/m/le/crt0.o
 .debug_info    0x000000b2       0x80 c:/xilinx/14.4/ise_ds/edk/gnu/microblaze/nt64/bin/../lib/gcc/microblaze-xilinx-elf/4.6.2/bs/m/le/crti.o
 .debug_info    0x00000132       0xb9 c:/xilinx/14.4/ise_ds/edk/gnu/microblaze/nt64/bin/../lib/gcc/microblaze-xilinx-elf/4.6.2/../../../../microblaze-xilinx-elf/lib/bs/m/le/crtinit.o
 .debug_info    0x000001eb      0x5a4 ./wlan_mac_high_framework/wlan_exp_common.o
 .debug_info    0x0000078f     0x2e18 ./wlan_mac_high_framework/wlan_exp_node.o
 .debug_info    0x000035a7     0x10a6 ./wlan_mac_high_framework/wlan_exp_transport.o
 .debug_info    0x0000464d      0x214 ./wlan_mac_high_framework/wlan_exp_user.o
 .debug_info    0x00004861      0x364 ./wlan_mac_high_framework/wlan_mac_addr_filter.o
 .debug_info    0x00004bc5      0xde2 ./wlan_mac_high_framework/wlan_mac_bss_info.o
 .debug_info    0x000059a7      0x37a ./wlan_mac_high_framework/wlan_mac_dl_list.o
 .debug_info    0x00005d21     0x14b9 ./wlan_mac_high_framework/wlan_mac_entries.o
 .debug_info    0x000071da     0x1ad4 ./wlan_mac_high_framework/wlan_mac_eth_util.o
 .debug_info    0x00008cae      0x808 ./wlan_mac_high_framework/wlan_mac_event_log.o
 .debug_info    0x000094b6     0x2af6 ./wlan_mac_high_framework/wlan_mac_high.o
 .debug_info    0x0000bfac      0xe02 ./wlan_mac_high_framework/wlan_mac_ltg.o
 .debug_info    0x0000cdae      0xd38 ./wlan_mac_high_framework/wlan_mac_packet_types.o
 .debug_info    0x0000dae6      0x7d9 ./wlan_mac_high_framework/wlan_mac_queue.o
 .debug_info    0x0000e2bf      0x3ae ./wlan_mac_high_framework/wlan_mac_scan.o
 .debug_info    0x0000e66d      0x8a6 ./wlan_mac_high_framework/wlan_mac_schedule.o
 .debug_info    0x0000ef13     0x11c2 ./wlan_mac_high_framework/wlan_mac_station_info.o
 .debug_info    0x000100d5      0x20a ./wlan_mac_common/wlan_mac_common.o
 .debug_info    0x000102df      0x55d ./wlan_mac_common/wlan_mac_mailbox_util.o
 .debug_info    0x0001083c      0x396 ./wlan_mac_common/wlan_mac_pkt_buf_util.o
 .debug_info    0x00010bd2       0xf1 ./wlan_mac_common/wlan_mac_sysmon_util.o
 .debug_info    0x00010cc3      0x243 ./wlan_mac_common/wlan_mac_time_util.o
 .debug_info    0x00010f06      0x342 ./wlan_mac_common/wlan_mac_userio_util.o
 .debug_info    0x00011248      0x9c7 ./src/wlan_exp_node_ap.o
 .debug_info    0x00011c0f     0x24d7 ./src/wlan_mac_ap.o
 .debug_info    0x000140e6      0xc60 ./src/wlan_mac_ap_uart_menu.o
 .debug_info    0x00014d46     0x1776 ./src/wlan_mac_chan_util.o
 .debug_info    0x000164bc      0x406 ../../wlan_bsp_cpu_high/mb_high/lib\libxil.a(xil_printf.o)
 .debug_info    0x000168c2       0xc4 ../../wlan_bsp_cpu_high/mb_high/lib\libxil.a(_exception_handler.o)
 .debug_info    0x00016986       0xc0 ../../wlan_bsp_cpu_high/mb_high/lib\libxil.a(_program_clean.o)
 .debug_info    0x00016a46       0xbf ../../wlan_bsp_cpu_high/mb_high/lib\libxil.a(_program_init.o)
 .debug_info    0x00016b05       0xf0 ../../wlan_bsp_cpu_high/mb_high/lib\libxil.a(hw_exception_handler.o)
 .debug_info    0x00016bf5      0x116 ../../wlan_bsp_cpu_high/mb_high/lib\libxil.a(microblaze_interrupt_handler.o)
 .debug_info    0x00016d0b       0xd6 ../../wlan_bsp_cpu_high/mb_high/lib\libxil.a(microblaze_interrupts_g.o)
 .debug_info    0x00016de1       0x96 ../../wlan_bsp_cpu_high/mb_high/lib\libxil.a(outbyte.o)
 .debug_info    0x00016e77      0x1f2 ../../wlan_bsp_cpu_high/mb_high/lib\libxil.a(xil_exception.o)
 .debug_info    0x00017069      0x2b9 ../../wlan_bsp_cpu_high/mb_high/lib\libxil.a(xil_io.o)
 .debug_info    0x00017322      0x5df ../../wlan_bsp_cpu_high/mb_high/lib\libxil.a(WARP_ip_udp_init.o)
 .debug_info    0x00017901     0x1704 ../../wlan_bsp_cpu_high/mb_high/lib\libxil.a(WARP_ip_udp_eth.o)
 .debug_info    0x00019005      0xd58 ../../wlan_bsp_cpu_high/mb_high/lib\libxil.a(WARP_ip_udp_ip_udp.o)
 .debug_info    0x00019d5d      0xdcb ../../wlan_bsp_cpu_high/mb_high/lib\libxil.a(WARP_ip_udp_socket.o)
 .debug_info    0x0001ab28      0x7ee ../../wlan_bsp_cpu_high/mb_high/lib\libxil.a(xaxicdma.o)
 .debug_info    0x0001b316      0xa4b ../../wlan_bsp_cpu_high/mb_high/lib\libxil.a(xaxicdma_bdring.o)
 .debug_info    0x0001bd61      0x46e ../../wlan_bsp_cpu_high/mb_high/lib\libxil.a(xaxicdma_intr.o)
 .debug_info    0x0001c1cf      0x177 ../../wlan_bsp_cpu_high/mb_high/lib\libxil.a(xaxicdma_sinit.o)
 .debug_info    0x0001c346      0x81f ../../wlan_bsp_cpu_high/mb_high/lib\libxil.a(xaxidma.o)
 .debug_info    0x0001cb65      0x258 ../../wlan_bsp_cpu_high/mb_high/lib\libxil.a(xaxidma_bd.o)
 .debug_info    0x0001cdbd      0x83e ../../wlan_bsp_cpu_high/mb_high/lib\libxil.a(xaxidma_bdring.o)
 .debug_info    0x0001d5fb      0x1d6 ../../wlan_bsp_cpu_high/mb_high/lib\libxil.a(xaxidma_sinit.o)
 .debug_info    0x0001d7d1      0x8f1 ../../wlan_bsp_cpu_high/mb_high/lib\libxil.a(xaxiethernet.o)
 .debug_info    0x0001e0c2      0x28c ../../wlan_bsp_cpu_high/mb_high/lib\libxil.a(xaxiethernet_sinit.o)
 .debug_info    0x0001e34e      0x752 ../../wlan_bsp_cpu_high/mb_high/lib\libxil.a(xintc.o)
 .debug_info    0x0001eaa0      0x180 ../../wlan_bsp_cpu_high/mb_high/lib\libxil.a(xintc_g.o)
 .debug_info    0x0001ec20      0x425 ../../wlan_bsp_cpu_high/mb_high/lib\libxil.a(xintc_l.o)
 .debug_info    0x0001f045      0x29f ../../wlan_bsp_cpu_high/mb_high/lib\libxil.a(xgpio.o)
 .debug_info    0x0001f2e4      0x276 ../../wlan_bsp_cpu_high/mb_high/lib\libxil.a(xgpio_intr.o)
 .debug_info    0x0001f55a      0x262 ../../wlan_bsp_cpu_high/mb_high/lib\libxil.a(xgpio_sinit.o)
 .debug_info    0x0001f7bc      0x4eb ../../wlan_bsp_cpu_high/mb_high/lib\libxil.a(xtmrctr.o)
 .debug_info    0x0001fca7       0xdb ../../wlan_bsp_cpu_high/mb_high/lib\libxil.a(xtmrctr_g.o)
 .debug_info    0x0001fd82      0x211 ../../wlan_bsp_cpu_high/mb_high/lib\libxil.a(xtmrctr_intr.o)
 .debug_info    0x0001ff93       0x9f ../../wlan_bsp_cpu_high/mb_high/lib\libxil.a(xtmrctr_l.o)
 .debug_info    0x00020032      0x298 ../../wlan_bsp_cpu_high/mb_high/lib\libxil.a(xtmrctr_options.o)
 .debug_info    0x000202ca      0x511 ../../wlan_bsp_cpu_high/mb_high/lib\libxil.a(xuartlite.o)
 .debug_info    0x000207db      0x3c3 ../../wlan_bsp_cpu_high/mb_high/lib\libxil.a(xuartlite_intr.o)
 .debug_info    0x00020b9e       0xe1 ../../wlan_bsp_cpu_high/mb_high/lib\libxil.a(xuartlite_l.o)
 .debug_info    0x00020c7f      0x3b7 ../../wlan_bsp_cpu_high/mb_high/lib\libxil.a(xuartlite_sinit.o)
 .debug_info    0x00021036      0x286 ../../wlan_bsp_cpu_high/mb_high/lib\libxil.a(xuartlite_stats.o)
 .debug_info    0x000212bc      0x6d5 ../../wlan_bsp_cpu_high/mb_high/lib\libxil.a(xmbox.o)
 .debug_info    0x00021991      0x180 ../../wlan_bsp_cpu_high/mb_high/lib\libxil.a(xmbox_sinit.o)
 .debug_info    0x00021b11      0x40e ../../wlan_bsp_cpu_high/mb_high/lib\libxil.a(xmutex.o)
 .debug_info    0x00021f1f      0x172 ../../wlan_bsp_cpu_high/mb_high/lib\libxil.a(xmutex_sinit.o)
 .debug_info    0x00022091      0x7c5 ../../wlan_bsp_cpu_high/mb_high/lib\libxil.a(w3_iic_eeprom.o)
 .debug_info    0x00022856       0x78 ../../wlan_bsp_cpu_high/mb_high/lib\libxil.a(print.o)
 .debug_info    0x000228ce      0x15c ../../wlan_bsp_cpu_high/mb_high/lib\libxil.a(xbasic_types.o)
 .debug_info    0x00022a2a       0xf9 ../../wlan_bsp_cpu_high/mb_high/lib\libxil.a(microblaze_disable_exceptions.o)
 .debug_info    0x00022b23       0xf9 ../../wlan_bsp_cpu_high/mb_high/lib\libxil.a(microblaze_disable_interrupts.o)
 .debug_info    0x00022c1c       0xf8 ../../wlan_bsp_cpu_high/mb_high/lib\libxil.a(microblaze_enable_exceptions.o)
 .debug_info    0x00022d14       0xf8 ../../wlan_bsp_cpu_high/mb_high/lib\libxil.a(microblaze_enable_interrupts.o)
 .debug_info    0x00022e0c       0xfe ../../wlan_bsp_cpu_high/mb_high/lib\libxil.a(microblaze_invalidate_dcache_range.o)
 .debug_info    0x00022f0a      0x139 ../../wlan_bsp_cpu_high/mb_high/lib\libxil.a(xil_assert.o)
 .debug_info    0x00023043      0x7e7 ../../wlan_bsp_cpu_high/mb_high/lib\libxil.a(WARP_ip_udp_config.o)
 .debug_info    0x0002382a      0x4da ../../wlan_bsp_cpu_high/mb_high/lib\libxil.a(xaxicdma_bd.o)
 .debug_info    0x00023d04      0x129 ../../wlan_bsp_cpu_high/mb_high/lib\libxil.a(xaxicdma_g.o)
 .debug_info    0x00023e2d      0x183 ../../wlan_bsp_cpu_high/mb_high/lib\libxil.a(xaxidma_g.o)
 .debug_info    0x00023fb0      0x239 ../../wlan_bsp_cpu_high/mb_high/lib\libxil.a(xaxiethernet_g.o)
 .debug_info    0x000241e9       0xf7 ../../wlan_bsp_cpu_high/mb_high/lib\libxil.a(xgpio_g.o)
 .debug_info    0x000242e0      0x124 ../../wlan_bsp_cpu_high/mb_high/lib\libxil.a(xuartlite_g.o)
 .debug_info    0x00024404      0x130 ../../wlan_bsp_cpu_high/mb_high/lib\libxil.a(xmbox_g.o)
 .debug_info    0x00024534      0x122 ../../wlan_bsp_cpu_high/mb_high/lib\libxil.a(xmutex_g.o)
 .debug_info    0x00024656       0xd2 c:/xilinx/14.4/ise_ds/edk/gnu/microblaze/nt64/bin/../lib/gcc/microblaze-xilinx-elf/4.6.2/bs/m/le\libgcc.a(_fixunssfsi.o)
 .debug_info    0x00024728       0xe7 c:/xilinx/14.4/ise_ds/edk/gnu/microblaze/nt64/bin/../lib/gcc/microblaze-xilinx-elf/4.6.2/bs/m/le\libgcc.a(_floatundisf.o)
 .debug_info    0x0002480f      0x744 c:/xilinx/14.4/ise_ds/edk/gnu/microblaze/nt64/bin/../lib/gcc/microblaze-xilinx-elf/4.6.2/bs/m/le\libgcc.a(_udivdi3.o)
 .debug_info    0x00024f53      0x44d c:/xilinx/14.4/ise_ds/edk/gnu/microblaze/nt64/bin/../lib/gcc/microblaze-xilinx-elf/4.6.2/bs/m/le\libgcc.a(_addsub_sf.o)
 .debug_info    0x000253a0      0x37e c:/xilinx/14.4/ise_ds/edk/gnu/microblaze/nt64/bin/../lib/gcc/microblaze-xilinx-elf/4.6.2/bs/m/le\libgcc.a(_mul_sf.o)
 .debug_info    0x0002571e      0x372 c:/xilinx/14.4/ise_ds/edk/gnu/microblaze/nt64/bin/../lib/gcc/microblaze-xilinx-elf/4.6.2/bs/m/le\libgcc.a(_div_sf.o)
 .debug_info    0x00025a90      0x24a c:/xilinx/14.4/ise_ds/edk/gnu/microblaze/nt64/bin/../lib/gcc/microblaze-xilinx-elf/4.6.2/bs/m/le\libgcc.a(_ge_sf.o)
 .debug_info    0x00025cda      0x27f c:/xilinx/14.4/ise_ds/edk/gnu/microblaze/nt64/bin/../lib/gcc/microblaze-xilinx-elf/4.6.2/bs/m/le\libgcc.a(_sf_to_si.o)
 .debug_info    0x00025f59      0x16a c:/xilinx/14.4/ise_ds/edk/gnu/microblaze/nt64/bin/../lib/gcc/microblaze-xilinx-elf/4.6.2/bs/m/le\libgcc.a(_thenan_sf.o)
 .debug_info    0x000260c3      0x23a c:/xilinx/14.4/ise_ds/edk/gnu/microblaze/nt64/bin/../lib/gcc/microblaze-xilinx-elf/4.6.2/bs/m/le\libgcc.a(_usi_to_sf.o)
 .debug_info    0x000262fd      0x45d c:/xilinx/14.4/ise_ds/edk/gnu/microblaze/nt64/bin/../lib/gcc/microblaze-xilinx-elf/4.6.2/bs/m/le\libgcc.a(_addsub_df.o)
 .debug_info    0x0002675a      0x44a c:/xilinx/14.4/ise_ds/edk/gnu/microblaze/nt64/bin/../lib/gcc/microblaze-xilinx-elf/4.6.2/bs/m/le\libgcc.a(_mul_df.o)
 .debug_info    0x00026ba4      0x21b c:/xilinx/14.4/ise_ds/edk/gnu/microblaze/nt64/bin/../lib/gcc/microblaze-xilinx-elf/4.6.2/bs/m/le\libgcc.a(_df_to_sf.o)
 .debug_info    0x00026dbf      0x16a c:/xilinx/14.4/ise_ds/edk/gnu/microblaze/nt64/bin/../lib/gcc/microblaze-xilinx-elf/4.6.2/bs/m/le\libgcc.a(_thenan_df.o)
 .debug_info    0x00026f29      0x236 c:/xilinx/14.4/ise_ds/edk/gnu/microblaze/nt64/bin/../lib/gcc/microblaze-xilinx-elf/4.6.2/bs/m/le\libgcc.a(_usi_to_df.o)
 .debug_info    0x0002715f       0xac c:/xilinx/14.4/ise_ds/edk/gnu/microblaze/nt64/bin/../lib/gcc/microblaze-xilinx-elf/4.6.2/bs/m/le\libgcc.a(modsi3.o)
 .debug_info    0x0002720b       0xad c:/xilinx/14.4/ise_ds/edk/gnu/microblaze/nt64/bin/../lib/gcc/microblaze-xilinx-elf/4.6.2/bs/m/le\libgcc.a(udivsi3.o)
 .debug_info    0x000272b8       0xad c:/xilinx/14.4/ise_ds/edk/gnu/microblaze/nt64/bin/../lib/gcc/microblaze-xilinx-elf/4.6.2/bs/m/le\libgcc.a(umodsi3.o)
 .debug_info    0x00027365      0x1f5 c:/xilinx/14.4/ise_ds/edk/gnu/microblaze/nt64/bin/../lib/gcc/microblaze-xilinx-elf/4.6.2/bs/m/le\libgcc.a(_muldi3.o)
 .debug_info    0x0002755a       0xbb c:/xilinx/14.4/ise_ds/edk/gnu/microblaze/nt64/bin/../lib/gcc/microblaze-xilinx-elf/4.6.2/bs/m/le\libgcc.a(_clz.o)
 .debug_info    0x00027615      0x13c c:/xilinx/14.4/ise_ds/edk/gnu/microblaze/nt64/bin/../lib/gcc/microblaze-xilinx-elf/4.6.2/bs/m/le\libgcc.a(_clzsi2.o)
 .debug_info    0x00027751      0x2b8 c:/xilinx/14.4/ise_ds/edk/gnu/microblaze/nt64/bin/../lib/gcc/microblaze-xilinx-elf/4.6.2/bs/m/le\libgcc.a(_pack_sf.o)
 .debug_info    0x00027a09      0x21c c:/xilinx/14.4/ise_ds/edk/gnu/microblaze/nt64/bin/../lib/gcc/microblaze-xilinx-elf/4.6.2/bs/m/le\libgcc.a(_unpack_sf.o)
 .debug_info    0x00027c25      0x234 c:/xilinx/14.4/ise_ds/edk/gnu/microblaze/nt64/bin/../lib/gcc/microblaze-xilinx-elf/4.6.2/bs/m/le\libgcc.a(_fpcmp_parts_sf.o)
 .debug_info    0x00027e59      0x1dd c:/xilinx/14.4/ise_ds/edk/gnu/microblaze/nt64/bin/../lib/gcc/microblaze-xilinx-elf/4.6.2/bs/m/le\libgcc.a(_make_sf.o)
 .debug_info    0x00028036      0x2bd c:/xilinx/14.4/ise_ds/edk/gnu/microblaze/nt64/bin/../lib/gcc/microblaze-xilinx-elf/4.6.2/bs/m/le\libgcc.a(_pack_df.o)
 .debug_info    0x000282f3      0x225 c:/xilinx/14.4/ise_ds/edk/gnu/microblaze/nt64/bin/../lib/gcc/microblaze-xilinx-elf/4.6.2/bs/m/le\libgcc.a(_unpack_df.o)
 .debug_info    0x00028518      0x18e c:/xilinx/14.4/ise_ds/edk/gnu/microblaze/nt64/bin/../lib/gcc/microblaze-xilinx-elf/4.6.2/bs/m/le\libgcc.a(_lshrdi3.o)
 .debug_info    0x000286a6      0x18e c:/xilinx/14.4/ise_ds/edk/gnu/microblaze/nt64/bin/../lib/gcc/microblaze-xilinx-elf/4.6.2/bs/m/le\libgcc.a(_ashldi3.o)
 .debug_info    0x00028834      0x23a ../../wlan_bsp_cpu_high/mb_high/lib\libxil.a(fstat.o)
 .debug_info    0x00028a6e       0x52 ../../wlan_bsp_cpu_high/mb_high/lib\libxil.a(isatty.o)
 .debug_info    0x00028ac0       0xcb ../../wlan_bsp_cpu_high/mb_high/lib\libxil.a(lseek.o)
 .debug_info    0x00028b8b      0x101 ../../wlan_bsp_cpu_high/mb_high/lib\libxil.a(sbrk.o)
 .debug_info    0x00028c8c       0x8d ../../wlan_bsp_cpu_high/mb_high/lib\libxil.a(write.o)
 .debug_info    0x00028d19       0x8d ../../wlan_bsp_cpu_high/mb_high/lib\libxil.a(read.o)
 .debug_info    0x00028da6       0x52 ../../wlan_bsp_cpu_high/mb_high/lib\libxil.a(close.o)
 .debug_info    0x00028df8      0x8cf ../../wlan_bsp_cpu_high/mb_high/lib\libxil.a(errno.o)
 .debug_info    0x000296c7       0x8c ../../wlan_bsp_cpu_high/mb_high/lib\libxil.a(inbyte.o)
 .debug_info    0x00029753      0x792 c:/xilinx/14.4/ise_ds/edk/gnu/microblaze/nt64/bin/../lib/gcc/microblaze-xilinx-elf/4.6.2/bs/m/le\libgcc.a(_umoddi3.o)
 .debug_info    0x00029ee5       0x80 c:/xilinx/14.4/ise_ds/edk/gnu/microblaze/nt64/bin/../lib/gcc/microblaze-xilinx-elf/4.6.2/bs/m/le/crtn.o

.debug_abbrev   0x00000000     0x9c3f
 .debug_abbrev  0x00000000       0x12 c:/xilinx/14.4/ise_ds/edk/gnu/microblaze/nt64/bin/../lib/gcc/microblaze-xilinx-elf/4.6.2/../../../../microblaze-xilinx-elf/lib/bs/m/le/crt0.o
 .debug_abbrev  0x00000012       0x12 c:/xilinx/14.4/ise_ds/edk/gnu/microblaze/nt64/bin/../lib/gcc/microblaze-xilinx-elf/4.6.2/bs/m/le/crti.o
 .debug_abbrev  0x00000024       0x14 c:/xilinx/14.4/ise_ds/edk/gnu/microblaze/nt64/bin/../lib/gcc/microblaze-xilinx-elf/4.6.2/../../../../microblaze-xilinx-elf/lib/bs/m/le/crtinit.o
 .debug_abbrev  0x00000038      0x201 ./wlan_mac_high_framework/wlan_exp_common.o
 .debug_abbrev  0x00000239      0x37e ./wlan_mac_high_framework/wlan_exp_node.o
 .debug_abbrev  0x000005b7      0x29e ./wlan_mac_high_framework/wlan_exp_transport.o
 .debug_abbrev  0x00000855       0xd7 ./wlan_mac_high_framework/wlan_exp_user.o
 .debug_abbrev  0x0000092c      0x167 ./wlan_mac_high_framework/wlan_mac_addr_filter.o
 .debug_abbrev  0x00000a93      0x212 ./wlan_mac_high_framework/wlan_mac_bss_info.o
 .debug_abbrev  0x00000ca5      0x134 ./wlan_mac_high_framework/wlan_mac_dl_list.o
 .debug_abbrev  0x00000dd9      0x322 ./wlan_mac_high_framework/wlan_mac_entries.o
 .debug_abbrev  0x000010fb      0x2d9 ./wlan_mac_high_framework/wlan_mac_eth_util.o
 .debug_abbrev  0x000013d4      0x20f ./wlan_mac_high_framework/wlan_mac_event_log.o
 .debug_abbrev  0x000015e3      0x36e ./wlan_mac_high_framework/wlan_mac_high.o
 .debug_abbrev  0x00001951      0x2e1 ./wlan_mac_high_framework/wlan_mac_ltg.o
 .debug_abbrev  0x00001c32      0x1db ./wlan_mac_high_framework/wlan_mac_packet_types.o
 .debug_abbrev  0x00001e0d      0x265 ./wlan_mac_high_framework/wlan_mac_queue.o
 .debug_abbrev  0x00002072      0x1a2 ./wlan_mac_high_framework/wlan_mac_scan.o
 .debug_abbrev  0x00002214      0x1e4 ./wlan_mac_high_framework/wlan_mac_schedule.o
 .debug_abbrev  0x000023f8      0x297 ./wlan_mac_high_framework/wlan_mac_station_info.o
 .debug_abbrev  0x0000268f      0x109 ./wlan_mac_common/wlan_mac_common.o
 .debug_abbrev  0x00002798      0x1d8 ./wlan_mac_common/wlan_mac_mailbox_util.o
 .debug_abbrev  0x00002970       0xd7 ./wlan_mac_common/wlan_mac_pkt_buf_util.o
 .debug_abbrev  0x00002a47       0x74 ./wlan_mac_common/wlan_mac_sysmon_util.o
 .debug_abbrev  0x00002abb       0xe8 ./wlan_mac_common/wlan_mac_time_util.o
 .debug_abbrev  0x00002ba3      0x16f ./wlan_mac_common/wlan_mac_userio_util.o
 .debug_abbrev  0x00002d12      0x19d ./src/wlan_exp_node_ap.o
 .debug_abbrev  0x00002eaf      0x371 ./src/wlan_mac_ap.o
 .debug_abbrev  0x00003220      0x1ee ./src/wlan_mac_ap_uart_menu.o
 .debug_abbrev  0x0000340e      0x387 ./src/wlan_mac_chan_util.o
 .debug_abbrev  0x00003795      0x1f8 ../../wlan_bsp_cpu_high/mb_high/lib\libxil.a(xil_printf.o)
 .debug_abbrev  0x0000398d       0x14 ../../wlan_bsp_cpu_high/mb_high/lib\libxil.a(_exception_handler.o)
 .debug_abbrev  0x000039a1       0x14 ../../wlan_bsp_cpu_high/mb_high/lib\libxil.a(_program_clean.o)
 .debug_abbrev  0x000039b5       0x14 ../../wlan_bsp_cpu_high/mb_high/lib\libxil.a(_program_init.o)
 .debug_abbrev  0x000039c9       0x14 ../../wlan_bsp_cpu_high/mb_high/lib\libxil.a(hw_exception_handler.o)
 .debug_abbrev  0x000039dd       0xbf ../../wlan_bsp_cpu_high/mb_high/lib\libxil.a(microblaze_interrupt_handler.o)
 .debug_abbrev  0x00003a9c       0x96 ../../wlan_bsp_cpu_high/mb_high/lib\libxil.a(microblaze_interrupts_g.o)
 .debug_abbrev  0x00003b32       0x4e ../../wlan_bsp_cpu_high/mb_high/lib\libxil.a(outbyte.o)
 .debug_abbrev  0x00003b80      0x108 ../../wlan_bsp_cpu_high/mb_high/lib\libxil.a(xil_exception.o)
 .debug_abbrev  0x00003c88      0x120 ../../wlan_bsp_cpu_high/mb_high/lib\libxil.a(xil_io.o)
 .debug_abbrev  0x00003da8      0x1b0 ../../wlan_bsp_cpu_high/mb_high/lib\libxil.a(WARP_ip_udp_init.o)
 .debug_abbrev  0x00003f58      0x2ff ../../wlan_bsp_cpu_high/mb_high/lib\libxil.a(WARP_ip_udp_eth.o)
 .debug_abbrev  0x00004257      0x274 ../../wlan_bsp_cpu_high/mb_high/lib\libxil.a(WARP_ip_udp_ip_udp.o)
 .debug_abbrev  0x000044cb      0x2f6 ../../wlan_bsp_cpu_high/mb_high/lib\libxil.a(WARP_ip_udp_socket.o)
 .debug_abbrev  0x000047c1      0x24d ../../wlan_bsp_cpu_high/mb_high/lib\libxil.a(xaxicdma.o)
 .debug_abbrev  0x00004a0e      0x25c ../../wlan_bsp_cpu_high/mb_high/lib\libxil.a(xaxicdma_bdring.o)
 .debug_abbrev  0x00004c6a      0x155 ../../wlan_bsp_cpu_high/mb_high/lib\libxil.a(xaxicdma_intr.o)
 .debug_abbrev  0x00004dbf       0xdb ../../wlan_bsp_cpu_high/mb_high/lib\libxil.a(xaxicdma_sinit.o)
 .debug_abbrev  0x00004e9a      0x24f ../../wlan_bsp_cpu_high/mb_high/lib\libxil.a(xaxidma.o)
 .debug_abbrev  0x000050e9       0xf9 ../../wlan_bsp_cpu_high/mb_high/lib\libxil.a(xaxidma_bd.o)
 .debug_abbrev  0x000051e2      0x172 ../../wlan_bsp_cpu_high/mb_high/lib\libxil.a(xaxidma_bdring.o)
 .debug_abbrev  0x00005354       0xcc ../../wlan_bsp_cpu_high/mb_high/lib\libxil.a(xaxidma_sinit.o)
 .debug_abbrev  0x00005420      0x20e ../../wlan_bsp_cpu_high/mb_high/lib\libxil.a(xaxiethernet.o)
 .debug_abbrev  0x0000562e       0xdd ../../wlan_bsp_cpu_high/mb_high/lib\libxil.a(xaxiethernet_sinit.o)
 .debug_abbrev  0x0000570b      0x263 ../../wlan_bsp_cpu_high/mb_high/lib\libxil.a(xintc.o)
 .debug_abbrev  0x0000596e       0xa3 ../../wlan_bsp_cpu_high/mb_high/lib\libxil.a(xintc_g.o)
 .debug_abbrev  0x00005a11      0x1d1 ../../wlan_bsp_cpu_high/mb_high/lib\libxil.a(xintc_l.o)
 .debug_abbrev  0x00005be2       0xb9 ../../wlan_bsp_cpu_high/mb_high/lib\libxil.a(xgpio.o)
 .debug_abbrev  0x00005c9b       0xd7 ../../wlan_bsp_cpu_high/mb_high/lib\libxil.a(xgpio_intr.o)
 .debug_abbrev  0x00005d72      0x11f ../../wlan_bsp_cpu_high/mb_high/lib\libxil.a(xgpio_sinit.o)
 .debug_abbrev  0x00005e91      0x1b7 ../../wlan_bsp_cpu_high/mb_high/lib\libxil.a(xtmrctr.o)
 .debug_abbrev  0x00006048       0x83 ../../wlan_bsp_cpu_high/mb_high/lib\libxil.a(xtmrctr_g.o)
 .debug_abbrev  0x000060cb       0xd4 ../../wlan_bsp_cpu_high/mb_high/lib\libxil.a(xtmrctr_intr.o)
 .debug_abbrev  0x0000619f       0x5a ../../wlan_bsp_cpu_high/mb_high/lib\libxil.a(xtmrctr_l.o)
 .debug_abbrev  0x000061f9      0x10c ../../wlan_bsp_cpu_high/mb_high/lib\libxil.a(xtmrctr_options.o)
 .debug_abbrev  0x00006305      0x16d ../../wlan_bsp_cpu_high/mb_high/lib\libxil.a(xuartlite.o)
 .debug_abbrev  0x00006472      0x157 ../../wlan_bsp_cpu_high/mb_high/lib\libxil.a(xuartlite_intr.o)
 .debug_abbrev  0x000065c9       0x74 ../../wlan_bsp_cpu_high/mb_high/lib\libxil.a(xuartlite_l.o)
 .debug_abbrev  0x0000663d      0x136 ../../wlan_bsp_cpu_high/mb_high/lib\libxil.a(xuartlite_sinit.o)
 .debug_abbrev  0x00006773       0xb7 ../../wlan_bsp_cpu_high/mb_high/lib\libxil.a(xuartlite_stats.o)
 .debug_abbrev  0x0000682a      0x144 ../../wlan_bsp_cpu_high/mb_high/lib\libxil.a(xmbox.o)
 .debug_abbrev  0x0000696e       0xce ../../wlan_bsp_cpu_high/mb_high/lib\libxil.a(xmbox_sinit.o)
 .debug_abbrev  0x00006a3c      0x125 ../../wlan_bsp_cpu_high/mb_high/lib\libxil.a(xmutex.o)
 .debug_abbrev  0x00006b61       0xce ../../wlan_bsp_cpu_high/mb_high/lib\libxil.a(xmutex_sinit.o)
 .debug_abbrev  0x00006c2f      0x22f ../../wlan_bsp_cpu_high/mb_high/lib\libxil.a(w3_iic_eeprom.o)
 .debug_abbrev  0x00006e5e       0x76 ../../wlan_bsp_cpu_high/mb_high/lib\libxil.a(print.o)
 .debug_abbrev  0x00006ed4       0xd4 ../../wlan_bsp_cpu_high/mb_high/lib\libxil.a(xbasic_types.o)
 .debug_abbrev  0x00006fa8       0x14 ../../wlan_bsp_cpu_high/mb_high/lib\libxil.a(microblaze_disable_exceptions.o)
 .debug_abbrev  0x00006fbc       0x14 ../../wlan_bsp_cpu_high/mb_high/lib\libxil.a(microblaze_disable_interrupts.o)
 .debug_abbrev  0x00006fd0       0x14 ../../wlan_bsp_cpu_high/mb_high/lib\libxil.a(microblaze_enable_exceptions.o)
 .debug_abbrev  0x00006fe4       0x14 ../../wlan_bsp_cpu_high/mb_high/lib\libxil.a(microblaze_enable_interrupts.o)
 .debug_abbrev  0x00006ff8       0x14 ../../wlan_bsp_cpu_high/mb_high/lib\libxil.a(microblaze_invalidate_dcache_range.o)
 .debug_abbrev  0x0000700c       0xd4 ../../wlan_bsp_cpu_high/mb_high/lib\libxil.a(xil_assert.o)
 .debug_abbrev  0x000070e0      0x14e ../../wlan_bsp_cpu_high/mb_high/lib\libxil.a(WARP_ip_udp_config.o)
 .debug_abbrev  0x0000722e      0x1aa ../../wlan_bsp_cpu_high/mb_high/lib\libxil.a(xaxicdma_bd.o)
 .debug_abbrev  0x000073d8       0x90 ../../wlan_bsp_cpu_high/mb_high/lib\libxil.a(xaxicdma_g.o)
 .debug_abbrev  0x00007468       0x90 ../../wlan_bsp_cpu_high/mb_high/lib\libxil.a(xaxidma_g.o)
 .debug_abbrev  0x000074f8       0xa1 ../../wlan_bsp_cpu_high/mb_high/lib\libxil.a(xaxiethernet_g.o)
 .debug_abbrev  0x00007599       0x83 ../../wlan_bsp_cpu_high/mb_high/lib\libxil.a(xgpio_g.o)
 .debug_abbrev  0x0000761c       0x83 ../../wlan_bsp_cpu_high/mb_high/lib\libxil.a(xuartlite_g.o)
 .debug_abbrev  0x0000769f       0x83 ../../wlan_bsp_cpu_high/mb_high/lib\libxil.a(xmbox_g.o)
 .debug_abbrev  0x00007722       0x83 ../../wlan_bsp_cpu_high/mb_high/lib\libxil.a(xmutex_g.o)
 .debug_abbrev  0x000077a5       0x5d c:/xilinx/14.4/ise_ds/edk/gnu/microblaze/nt64/bin/../lib/gcc/microblaze-xilinx-elf/4.6.2/bs/m/le\libgcc.a(_fixunssfsi.o)
 .debug_abbrev  0x00007802       0x6a c:/xilinx/14.4/ise_ds/edk/gnu/microblaze/nt64/bin/../lib/gcc/microblaze-xilinx-elf/4.6.2/bs/m/le\libgcc.a(_floatundisf.o)
 .debug_abbrev  0x0000786c      0x192 c:/xilinx/14.4/ise_ds/edk/gnu/microblaze/nt64/bin/../lib/gcc/microblaze-xilinx-elf/4.6.2/bs/m/le\libgcc.a(_udivdi3.o)
 .debug_abbrev  0x000079fe      0x19d c:/xilinx/14.4/ise_ds/edk/gnu/microblaze/nt64/bin/../lib/gcc/microblaze-xilinx-elf/4.6.2/bs/m/le\libgcc.a(_addsub_sf.o)
 .debug_abbrev  0x00007b9b      0x1c2 c:/xilinx/14.4/ise_ds/edk/gnu/microblaze/nt64/bin/../lib/gcc/microblaze-xilinx-elf/4.6.2/bs/m/le\libgcc.a(_mul_sf.o)
 .debug_abbrev  0x00007d5d      0x1ba c:/xilinx/14.4/ise_ds/edk/gnu/microblaze/nt64/bin/../lib/gcc/microblaze-xilinx-elf/4.6.2/bs/m/le\libgcc.a(_div_sf.o)
 .debug_abbrev  0x00007f17      0x127 c:/xilinx/14.4/ise_ds/edk/gnu/microblaze/nt64/bin/../lib/gcc/microblaze-xilinx-elf/4.6.2/bs/m/le\libgcc.a(_ge_sf.o)
 .debug_abbrev  0x0000803e      0x14e c:/xilinx/14.4/ise_ds/edk/gnu/microblaze/nt64/bin/../lib/gcc/microblaze-xilinx-elf/4.6.2/bs/m/le\libgcc.a(_sf_to_si.o)
 .debug_abbrev  0x0000818c       0xcb c:/xilinx/14.4/ise_ds/edk/gnu/microblaze/nt64/bin/../lib/gcc/microblaze-xilinx-elf/4.6.2/bs/m/le\libgcc.a(_thenan_sf.o)
 .debug_abbrev  0x00008257      0x164 c:/xilinx/14.4/ise_ds/edk/gnu/microblaze/nt64/bin/../lib/gcc/microblaze-xilinx-elf/4.6.2/bs/m/le\libgcc.a(_usi_to_sf.o)
 .debug_abbrev  0x000083bb      0x19d c:/xilinx/14.4/ise_ds/edk/gnu/microblaze/nt64/bin/../lib/gcc/microblaze-xilinx-elf/4.6.2/bs/m/le\libgcc.a(_addsub_df.o)
 .debug_abbrev  0x00008558      0x1c0 c:/xilinx/14.4/ise_ds/edk/gnu/microblaze/nt64/bin/../lib/gcc/microblaze-xilinx-elf/4.6.2/bs/m/le\libgcc.a(_mul_df.o)
 .debug_abbrev  0x00008718      0x10d c:/xilinx/14.4/ise_ds/edk/gnu/microblaze/nt64/bin/../lib/gcc/microblaze-xilinx-elf/4.6.2/bs/m/le\libgcc.a(_df_to_sf.o)
 .debug_abbrev  0x00008825       0xcb c:/xilinx/14.4/ise_ds/edk/gnu/microblaze/nt64/bin/../lib/gcc/microblaze-xilinx-elf/4.6.2/bs/m/le\libgcc.a(_thenan_df.o)
 .debug_abbrev  0x000088f0      0x171 c:/xilinx/14.4/ise_ds/edk/gnu/microblaze/nt64/bin/../lib/gcc/microblaze-xilinx-elf/4.6.2/bs/m/le\libgcc.a(_usi_to_df.o)
 .debug_abbrev  0x00008a61       0x14 c:/xilinx/14.4/ise_ds/edk/gnu/microblaze/nt64/bin/../lib/gcc/microblaze-xilinx-elf/4.6.2/bs/m/le\libgcc.a(modsi3.o)
 .debug_abbrev  0x00008a75       0x14 c:/xilinx/14.4/ise_ds/edk/gnu/microblaze/nt64/bin/../lib/gcc/microblaze-xilinx-elf/4.6.2/bs/m/le\libgcc.a(udivsi3.o)
 .debug_abbrev  0x00008a89       0x14 c:/xilinx/14.4/ise_ds/edk/gnu/microblaze/nt64/bin/../lib/gcc/microblaze-xilinx-elf/4.6.2/bs/m/le\libgcc.a(umodsi3.o)
 .debug_abbrev  0x00008a9d       0xec c:/xilinx/14.4/ise_ds/edk/gnu/microblaze/nt64/bin/../lib/gcc/microblaze-xilinx-elf/4.6.2/bs/m/le\libgcc.a(_muldi3.o)
 .debug_abbrev  0x00008b89       0x61 c:/xilinx/14.4/ise_ds/edk/gnu/microblaze/nt64/bin/../lib/gcc/microblaze-xilinx-elf/4.6.2/bs/m/le\libgcc.a(_clz.o)
 .debug_abbrev  0x00008bea       0xcc c:/xilinx/14.4/ise_ds/edk/gnu/microblaze/nt64/bin/../lib/gcc/microblaze-xilinx-elf/4.6.2/bs/m/le\libgcc.a(_clzsi2.o)
 .debug_abbrev  0x00008cb6      0x168 c:/xilinx/14.4/ise_ds/edk/gnu/microblaze/nt64/bin/../lib/gcc/microblaze-xilinx-elf/4.6.2/bs/m/le\libgcc.a(_pack_sf.o)
 .debug_abbrev  0x00008e1e      0x132 c:/xilinx/14.4/ise_ds/edk/gnu/microblaze/nt64/bin/../lib/gcc/microblaze-xilinx-elf/4.6.2/bs/m/le\libgcc.a(_unpack_sf.o)
 .debug_abbrev  0x00008f50      0x134 c:/xilinx/14.4/ise_ds/edk/gnu/microblaze/nt64/bin/../lib/gcc/microblaze-xilinx-elf/4.6.2/bs/m/le\libgcc.a(_fpcmp_parts_sf.o)
 .debug_abbrev  0x00009084      0x100 c:/xilinx/14.4/ise_ds/edk/gnu/microblaze/nt64/bin/../lib/gcc/microblaze-xilinx-elf/4.6.2/bs/m/le\libgcc.a(_make_sf.o)
 .debug_abbrev  0x00009184      0x173 c:/xilinx/14.4/ise_ds/edk/gnu/microblaze/nt64/bin/../lib/gcc/microblaze-xilinx-elf/4.6.2/bs/m/le\libgcc.a(_pack_df.o)
 .debug_abbrev  0x000092f7      0x130 c:/xilinx/14.4/ise_ds/edk/gnu/microblaze/nt64/bin/../lib/gcc/microblaze-xilinx-elf/4.6.2/bs/m/le\libgcc.a(_unpack_df.o)
 .debug_abbrev  0x00009427       0xec c:/xilinx/14.4/ise_ds/edk/gnu/microblaze/nt64/bin/../lib/gcc/microblaze-xilinx-elf/4.6.2/bs/m/le\libgcc.a(_lshrdi3.o)
 .debug_abbrev  0x00009513       0xec c:/xilinx/14.4/ise_ds/edk/gnu/microblaze/nt64/bin/../lib/gcc/microblaze-xilinx-elf/4.6.2/bs/m/le\libgcc.a(_ashldi3.o)
 .debug_abbrev  0x000095ff       0x96 ../../wlan_bsp_cpu_high/mb_high/lib\libxil.a(fstat.o)
 .debug_abbrev  0x00009695       0x45 ../../wlan_bsp_cpu_high/mb_high/lib\libxil.a(isatty.o)
 .debug_abbrev  0x000096da       0x6a ../../wlan_bsp_cpu_high/mb_high/lib\libxil.a(lseek.o)
 .debug_abbrev  0x00009744       0x96 ../../wlan_bsp_cpu_high/mb_high/lib\libxil.a(sbrk.o)
 .debug_abbrev  0x000097da       0x77 ../../wlan_bsp_cpu_high/mb_high/lib\libxil.a(write.o)
 .debug_abbrev  0x00009851       0x77 ../../wlan_bsp_cpu_high/mb_high/lib\libxil.a(read.o)
 .debug_abbrev  0x000098c8       0x45 ../../wlan_bsp_cpu_high/mb_high/lib\libxil.a(close.o)
 .debug_abbrev  0x0000990d      0x147 ../../wlan_bsp_cpu_high/mb_high/lib\libxil.a(errno.o)
 .debug_abbrev  0x00009a54       0x41 ../../wlan_bsp_cpu_high/mb_high/lib\libxil.a(inbyte.o)
 .debug_abbrev  0x00009a95      0x198 c:/xilinx/14.4/ise_ds/edk/gnu/microblaze/nt64/bin/../lib/gcc/microblaze-xilinx-elf/4.6.2/bs/m/le\libgcc.a(_umoddi3.o)
 .debug_abbrev  0x00009c2d       0x12 c:/xilinx/14.4/ise_ds/edk/gnu/microblaze/nt64/bin/../lib/gcc/microblaze-xilinx-elf/4.6.2/bs/m/le/crtn.o

.debug_aranges  0x00000000      0xef8
 .debug_aranges
                0x00000000       0x40 c:/xilinx/14.4/ise_ds/edk/gnu/microblaze/nt64/bin/../lib/gcc/microblaze-xilinx-elf/4.6.2/../../../../microblaze-xilinx-elf/lib/bs/m/le/crt0.o
 .debug_aranges
                0x00000040       0x28 c:/xilinx/14.4/ise_ds/edk/gnu/microblaze/nt64/bin/../lib/gcc/microblaze-xilinx-elf/4.6.2/bs/m/le/crti.o
 .debug_aranges
                0x00000068       0x20 c:/xilinx/14.4/ise_ds/edk/gnu/microblaze/nt64/bin/../lib/gcc/microblaze-xilinx-elf/4.6.2/../../../../microblaze-xilinx-elf/lib/bs/m/le/crtinit.o
 .debug_aranges
                0x00000088       0x20 ./wlan_mac_high_framework/wlan_exp_common.o
 .debug_aranges
                0x000000a8       0x20 ./wlan_mac_high_framework/wlan_exp_node.o
 .debug_aranges
                0x000000c8       0x20 ./wlan_mac_high_framework/wlan_exp_transport.o
 .debug_aranges
                0x000000e8       0x20 ./wlan_mac_high_framework/wlan_exp_user.o
 .debug_aranges
                0x00000108       0x20 ./wlan_mac_high_framework/wlan_mac_addr_filter.o
 .debug_aranges
                0x00000128       0x20 ./wlan_mac_high_framework/wlan_mac_bss_info.o
 .debug_aranges
                0x00000148       0x20 ./wlan_mac_high_framework/wlan_mac_dl_list.o
 .debug_aranges
                0x00000168       0x20 ./wlan_mac_high_framework/wlan_mac_entries.o
 .debug_aranges
                0x00000188       0x20 ./wlan_mac_high_framework/wlan_mac_eth_util.o
 .debug_aranges
                0x000001a8       0x20 ./wlan_mac_high_framework/wlan_mac_event_log.o
 .debug_aranges
                0x000001c8       0x20 ./wlan_mac_high_framework/wlan_mac_high.o
 .debug_aranges
                0x000001e8       0x20 ./wlan_mac_high_framework/wlan_mac_ltg.o
 .debug_aranges
                0x00000208       0x20 ./wlan_mac_high_framework/wlan_mac_packet_types.o
 .debug_aranges
                0x00000228       0x20 ./wlan_mac_high_framework/wlan_mac_queue.o
 .debug_aranges
                0x00000248       0x20 ./wlan_mac_high_framework/wlan_mac_scan.o
 .debug_aranges
                0x00000268       0x20 ./wlan_mac_high_framework/wlan_mac_schedule.o
 .debug_aranges
                0x00000288       0x20 ./wlan_mac_high_framework/wlan_mac_station_info.o
 .debug_aranges
                0x000002a8       0x20 ./wlan_mac_common/wlan_mac_common.o
 .debug_aranges
                0x000002c8       0x20 ./wlan_mac_common/wlan_mac_mailbox_util.o
 .debug_aranges
                0x000002e8       0x20 ./wlan_mac_common/wlan_mac_pkt_buf_util.o
 .debug_aranges
                0x00000308       0x20 ./wlan_mac_common/wlan_mac_sysmon_util.o
 .debug_aranges
                0x00000328       0x20 ./wlan_mac_common/wlan_mac_time_util.o
 .debug_aranges
                0x00000348       0x20 ./wlan_mac_common/wlan_mac_userio_util.o
 .debug_aranges
                0x00000368       0x20 ./src/wlan_exp_node_ap.o
 .debug_aranges
                0x00000388       0x28 ./src/wlan_mac_ap.o
 .debug_aranges
                0x000003b0       0x20 ./src/wlan_mac_ap_uart_menu.o
 .debug_aranges
                0x000003d0       0x20 ./src/wlan_mac_chan_util.o
 .debug_aranges
                0x000003f0       0x20 ../../wlan_bsp_cpu_high/mb_high/lib\libxil.a(xil_printf.o)
 .debug_aranges
                0x00000410       0x20 ../../wlan_bsp_cpu_high/mb_high/lib\libxil.a(_exception_handler.o)
 .debug_aranges
                0x00000430       0x20 ../../wlan_bsp_cpu_high/mb_high/lib\libxil.a(_program_clean.o)
 .debug_aranges
                0x00000450       0x20 ../../wlan_bsp_cpu_high/mb_high/lib\libxil.a(_program_init.o)
 .debug_aranges
                0x00000470       0x20 ../../wlan_bsp_cpu_high/mb_high/lib\libxil.a(hw_exception_handler.o)
 .debug_aranges
                0x00000490       0x20 ../../wlan_bsp_cpu_high/mb_high/lib\libxil.a(microblaze_interrupt_handler.o)
 .debug_aranges
                0x000004b0       0x20 ../../wlan_bsp_cpu_high/mb_high/lib\libxil.a(outbyte.o)
 .debug_aranges
                0x000004d0       0x20 ../../wlan_bsp_cpu_high/mb_high/lib\libxil.a(xil_exception.o)
 .debug_aranges
                0x000004f0       0x20 ../../wlan_bsp_cpu_high/mb_high/lib\libxil.a(xil_io.o)
 .debug_aranges
                0x00000510       0x20 ../../wlan_bsp_cpu_high/mb_high/lib\libxil.a(WARP_ip_udp_init.o)
 .debug_aranges
                0x00000530       0x20 ../../wlan_bsp_cpu_high/mb_high/lib\libxil.a(WARP_ip_udp_eth.o)
 .debug_aranges
                0x00000550       0x20 ../../wlan_bsp_cpu_high/mb_high/lib\libxil.a(WARP_ip_udp_ip_udp.o)
 .debug_aranges
                0x00000570       0x20 ../../wlan_bsp_cpu_high/mb_high/lib\libxil.a(WARP_ip_udp_socket.o)
 .debug_aranges
                0x00000590       0x20 ../../wlan_bsp_cpu_high/mb_high/lib\libxil.a(xaxicdma.o)
 .debug_aranges
                0x000005b0       0x20 ../../wlan_bsp_cpu_high/mb_high/lib\libxil.a(xaxicdma_bdring.o)
 .debug_aranges
                0x000005d0       0x20 ../../wlan_bsp_cpu_high/mb_high/lib\libxil.a(xaxicdma_intr.o)
 .debug_aranges
                0x000005f0       0x20 ../../wlan_bsp_cpu_high/mb_high/lib\libxil.a(xaxicdma_sinit.o)
 .debug_aranges
                0x00000610       0x20 ../../wlan_bsp_cpu_high/mb_high/lib\libxil.a(xaxidma.o)
 .debug_aranges
                0x00000630       0x20 ../../wlan_bsp_cpu_high/mb_high/lib\libxil.a(xaxidma_bd.o)
 .debug_aranges
                0x00000650       0x20 ../../wlan_bsp_cpu_high/mb_high/lib\libxil.a(xaxidma_bdring.o)
 .debug_aranges
                0x00000670       0x20 ../../wlan_bsp_cpu_high/mb_high/lib\libxil.a(xaxidma_sinit.o)
 .debug_aranges
                0x00000690       0x20 ../../wlan_bsp_cpu_high/mb_high/lib\libxil.a(xaxiethernet.o)
 .debug_aranges
                0x000006b0       0x20 ../../wlan_bsp_cpu_high/mb_high/lib\libxil.a(xaxiethernet_sinit.o)
 .debug_aranges
                0x000006d0       0x20 ../../wlan_bsp_cpu_high/mb_high/lib\libxil.a(xintc.o)
 .debug_aranges
                0x000006f0       0x20 ../../wlan_bsp_cpu_high/mb_high/lib\libxil.a(xintc_l.o)
 .debug_aranges
                0x00000710       0x20 ../../wlan_bsp_cpu_high/mb_high/lib\libxil.a(xgpio.o)
 .debug_aranges
                0x00000730       0x20 ../../wlan_bsp_cpu_high/mb_high/lib\libxil.a(xgpio_intr.o)
 .debug_aranges
                0x00000750       0x20 ../../wlan_bsp_cpu_high/mb_high/lib\libxil.a(xgpio_sinit.o)
 .debug_aranges
                0x00000770       0x20 ../../wlan_bsp_cpu_high/mb_high/lib\libxil.a(xtmrctr.o)
 .debug_aranges
                0x00000790       0x20 ../../wlan_bsp_cpu_high/mb_high/lib\libxil.a(xtmrctr_intr.o)
 .debug_aranges
                0x000007b0       0x20 ../../wlan_bsp_cpu_high/mb_high/lib\libxil.a(xtmrctr_options.o)
 .debug_aranges
                0x000007d0       0x20 ../../wlan_bsp_cpu_high/mb_high/lib\libxil.a(xuartlite.o)
 .debug_aranges
                0x000007f0       0x20 ../../wlan_bsp_cpu_high/mb_high/lib\libxil.a(xuartlite_intr.o)
 .debug_aranges
                0x00000810       0x20 ../../wlan_bsp_cpu_high/mb_high/lib\libxil.a(xuartlite_l.o)
 .debug_aranges
                0x00000830       0x20 ../../wlan_bsp_cpu_high/mb_high/lib\libxil.a(xuartlite_sinit.o)
 .debug_aranges
                0x00000850       0x20 ../../wlan_bsp_cpu_high/mb_high/lib\libxil.a(xuartlite_stats.o)
 .debug_aranges
                0x00000870       0x20 ../../wlan_bsp_cpu_high/mb_high/lib\libxil.a(xmbox.o)
 .debug_aranges
                0x00000890       0x20 ../../wlan_bsp_cpu_high/mb_high/lib\libxil.a(xmbox_sinit.o)
 .debug_aranges
                0x000008b0       0x20 ../../wlan_bsp_cpu_high/mb_high/lib\libxil.a(xmutex.o)
 .debug_aranges
                0x000008d0       0x20 ../../wlan_bsp_cpu_high/mb_high/lib\libxil.a(xmutex_sinit.o)
 .debug_aranges
                0x000008f0       0x20 ../../wlan_bsp_cpu_high/mb_high/lib\libxil.a(w3_iic_eeprom.o)
 .debug_aranges
                0x00000910       0x20 ../../wlan_bsp_cpu_high/mb_high/lib\libxil.a(print.o)
 .debug_aranges
                0x00000930       0x20 ../../wlan_bsp_cpu_high/mb_high/lib\libxil.a(xbasic_types.o)
 .debug_aranges
                0x00000950       0x20 ../../wlan_bsp_cpu_high/mb_high/lib\libxil.a(microblaze_disable_exceptions.o)
 .debug_aranges
                0x00000970       0x20 ../../wlan_bsp_cpu_high/mb_high/lib\libxil.a(microblaze_disable_interrupts.o)
 .debug_aranges
                0x00000990       0x20 ../../wlan_bsp_cpu_high/mb_high/lib\libxil.a(microblaze_enable_exceptions.o)
 .debug_aranges
                0x000009b0       0x20 ../../wlan_bsp_cpu_high/mb_high/lib\libxil.a(microblaze_enable_interrupts.o)
 .debug_aranges
                0x000009d0       0x20 ../../wlan_bsp_cpu_high/mb_high/lib\libxil.a(microblaze_invalidate_dcache_range.o)
 .debug_aranges
                0x000009f0       0x20 ../../wlan_bsp_cpu_high/mb_high/lib\libxil.a(xil_assert.o)
 .debug_aranges
                0x00000a10       0x20 ../../wlan_bsp_cpu_high/mb_high/lib\libxil.a(WARP_ip_udp_config.o)
 .debug_aranges
                0x00000a30       0x20 ../../wlan_bsp_cpu_high/mb_high/lib\libxil.a(xaxicdma_bd.o)
 .debug_aranges
                0x00000a50       0x20 c:/xilinx/14.4/ise_ds/edk/gnu/microblaze/nt64/bin/../lib/gcc/microblaze-xilinx-elf/4.6.2/bs/m/le\libgcc.a(_fixunssfsi.o)
 .debug_aranges
                0x00000a70       0x20 c:/xilinx/14.4/ise_ds/edk/gnu/microblaze/nt64/bin/../lib/gcc/microblaze-xilinx-elf/4.6.2/bs/m/le\libgcc.a(_floatundisf.o)
 .debug_aranges
                0x00000a90       0x20 c:/xilinx/14.4/ise_ds/edk/gnu/microblaze/nt64/bin/../lib/gcc/microblaze-xilinx-elf/4.6.2/bs/m/le\libgcc.a(_udivdi3.o)
 .debug_aranges
                0x00000ab0       0x20 c:/xilinx/14.4/ise_ds/edk/gnu/microblaze/nt64/bin/../lib/gcc/microblaze-xilinx-elf/4.6.2/bs/m/le\libgcc.a(_addsub_sf.o)
 .debug_aranges
                0x00000ad0       0x20 c:/xilinx/14.4/ise_ds/edk/gnu/microblaze/nt64/bin/../lib/gcc/microblaze-xilinx-elf/4.6.2/bs/m/le\libgcc.a(_mul_sf.o)
 .debug_aranges
                0x00000af0       0x20 c:/xilinx/14.4/ise_ds/edk/gnu/microblaze/nt64/bin/../lib/gcc/microblaze-xilinx-elf/4.6.2/bs/m/le\libgcc.a(_div_sf.o)
 .debug_aranges
                0x00000b10       0x20 c:/xilinx/14.4/ise_ds/edk/gnu/microblaze/nt64/bin/../lib/gcc/microblaze-xilinx-elf/4.6.2/bs/m/le\libgcc.a(_ge_sf.o)
 .debug_aranges
                0x00000b30       0x20 c:/xilinx/14.4/ise_ds/edk/gnu/microblaze/nt64/bin/../lib/gcc/microblaze-xilinx-elf/4.6.2/bs/m/le\libgcc.a(_sf_to_si.o)
 .debug_aranges
                0x00000b50       0x20 c:/xilinx/14.4/ise_ds/edk/gnu/microblaze/nt64/bin/../lib/gcc/microblaze-xilinx-elf/4.6.2/bs/m/le\libgcc.a(_usi_to_sf.o)
 .debug_aranges
                0x00000b70       0x20 c:/xilinx/14.4/ise_ds/edk/gnu/microblaze/nt64/bin/../lib/gcc/microblaze-xilinx-elf/4.6.2/bs/m/le\libgcc.a(_addsub_df.o)
 .debug_aranges
                0x00000b90       0x20 c:/xilinx/14.4/ise_ds/edk/gnu/microblaze/nt64/bin/../lib/gcc/microblaze-xilinx-elf/4.6.2/bs/m/le\libgcc.a(_mul_df.o)
 .debug_aranges
                0x00000bb0       0x20 c:/xilinx/14.4/ise_ds/edk/gnu/microblaze/nt64/bin/../lib/gcc/microblaze-xilinx-elf/4.6.2/bs/m/le\libgcc.a(_df_to_sf.o)
 .debug_aranges
                0x00000bd0       0x20 c:/xilinx/14.4/ise_ds/edk/gnu/microblaze/nt64/bin/../lib/gcc/microblaze-xilinx-elf/4.6.2/bs/m/le\libgcc.a(_usi_to_df.o)
 .debug_aranges
                0x00000bf0       0x20 c:/xilinx/14.4/ise_ds/edk/gnu/microblaze/nt64/bin/../lib/gcc/microblaze-xilinx-elf/4.6.2/bs/m/le\libgcc.a(modsi3.o)
 .debug_aranges
                0x00000c10       0x20 c:/xilinx/14.4/ise_ds/edk/gnu/microblaze/nt64/bin/../lib/gcc/microblaze-xilinx-elf/4.6.2/bs/m/le\libgcc.a(udivsi3.o)
 .debug_aranges
                0x00000c30       0x20 c:/xilinx/14.4/ise_ds/edk/gnu/microblaze/nt64/bin/../lib/gcc/microblaze-xilinx-elf/4.6.2/bs/m/le\libgcc.a(umodsi3.o)
 .debug_aranges
                0x00000c50       0x20 c:/xilinx/14.4/ise_ds/edk/gnu/microblaze/nt64/bin/../lib/gcc/microblaze-xilinx-elf/4.6.2/bs/m/le\libgcc.a(_muldi3.o)
 .debug_aranges
                0x00000c70       0x20 c:/xilinx/14.4/ise_ds/edk/gnu/microblaze/nt64/bin/../lib/gcc/microblaze-xilinx-elf/4.6.2/bs/m/le\libgcc.a(_clzsi2.o)
 .debug_aranges
                0x00000c90       0x20 c:/xilinx/14.4/ise_ds/edk/gnu/microblaze/nt64/bin/../lib/gcc/microblaze-xilinx-elf/4.6.2/bs/m/le\libgcc.a(_pack_sf.o)
 .debug_aranges
                0x00000cb0       0x20 c:/xilinx/14.4/ise_ds/edk/gnu/microblaze/nt64/bin/../lib/gcc/microblaze-xilinx-elf/4.6.2/bs/m/le\libgcc.a(_unpack_sf.o)
 .debug_aranges
                0x00000cd0       0x20 c:/xilinx/14.4/ise_ds/edk/gnu/microblaze/nt64/bin/../lib/gcc/microblaze-xilinx-elf/4.6.2/bs/m/le\libgcc.a(_fpcmp_parts_sf.o)
 .debug_aranges
                0x00000cf0       0x20 c:/xilinx/14.4/ise_ds/edk/gnu/microblaze/nt64/bin/../lib/gcc/microblaze-xilinx-elf/4.6.2/bs/m/le\libgcc.a(_make_sf.o)
 .debug_aranges
                0x00000d10       0x20 c:/xilinx/14.4/ise_ds/edk/gnu/microblaze/nt64/bin/../lib/gcc/microblaze-xilinx-elf/4.6.2/bs/m/le\libgcc.a(_pack_df.o)
 .debug_aranges
                0x00000d30       0x20 c:/xilinx/14.4/ise_ds/edk/gnu/microblaze/nt64/bin/../lib/gcc/microblaze-xilinx-elf/4.6.2/bs/m/le\libgcc.a(_unpack_df.o)
 .debug_aranges
                0x00000d50       0x20 c:/xilinx/14.4/ise_ds/edk/gnu/microblaze/nt64/bin/../lib/gcc/microblaze-xilinx-elf/4.6.2/bs/m/le\libgcc.a(_lshrdi3.o)
 .debug_aranges
                0x00000d70       0x20 c:/xilinx/14.4/ise_ds/edk/gnu/microblaze/nt64/bin/../lib/gcc/microblaze-xilinx-elf/4.6.2/bs/m/le\libgcc.a(_ashldi3.o)
 .debug_aranges
                0x00000d90       0x20 ../../wlan_bsp_cpu_high/mb_high/lib\libxil.a(fstat.o)
 .debug_aranges
                0x00000db0       0x20 ../../wlan_bsp_cpu_high/mb_high/lib\libxil.a(isatty.o)
 .debug_aranges
                0x00000dd0       0x20 ../../wlan_bsp_cpu_high/mb_high/lib\libxil.a(lseek.o)
 .debug_aranges
                0x00000df0       0x20 ../../wlan_bsp_cpu_high/mb_high/lib\libxil.a(sbrk.o)
 .debug_aranges
                0x00000e10       0x20 ../../wlan_bsp_cpu_high/mb_high/lib\libxil.a(write.o)
 .debug_aranges
                0x00000e30       0x20 ../../wlan_bsp_cpu_high/mb_high/lib\libxil.a(read.o)
 .debug_aranges
                0x00000e50       0x20 ../../wlan_bsp_cpu_high/mb_high/lib\libxil.a(close.o)
 .debug_aranges
                0x00000e70       0x20 ../../wlan_bsp_cpu_high/mb_high/lib\libxil.a(errno.o)
 .debug_aranges
                0x00000e90       0x20 ../../wlan_bsp_cpu_high/mb_high/lib\libxil.a(inbyte.o)
 .debug_aranges
                0x00000eb0       0x20 c:/xilinx/14.4/ise_ds/edk/gnu/microblaze/nt64/bin/../lib/gcc/microblaze-xilinx-elf/4.6.2/bs/m/le\libgcc.a(_umoddi3.o)
 .debug_aranges
                0x00000ed0       0x28 c:/xilinx/14.4/ise_ds/edk/gnu/microblaze/nt64/bin/../lib/gcc/microblaze-xilinx-elf/4.6.2/bs/m/le/crtn.o

.debug_ranges   0x00000000      0xca8
 .debug_ranges  0x00000000       0x38 c:/xilinx/14.4/ise_ds/edk/gnu/microblaze/nt64/bin/../lib/gcc/microblaze-xilinx-elf/4.6.2/../../../../microblaze-xilinx-elf/lib/bs/m/le/crt0.o
 .debug_ranges  0x00000038       0x20 c:/xilinx/14.4/ise_ds/edk/gnu/microblaze/nt64/bin/../lib/gcc/microblaze-xilinx-elf/4.6.2/bs/m/le/crti.o
 .debug_ranges  0x00000058       0x18 ./wlan_mac_high_framework/wlan_exp_node.o
 .debug_ranges  0x00000070       0x30 ./wlan_mac_high_framework/wlan_mac_entries.o
 .debug_ranges  0x000000a0       0x18 ./src/wlan_mac_ap.o
 .debug_ranges  0x000000b8       0x30 ./src/wlan_mac_chan_util.o
 .debug_ranges  0x000000e8       0x30 ../../wlan_bsp_cpu_high/mb_high/lib\libxil.a(xil_printf.o)
 .debug_ranges  0x00000118       0xb0 ../../wlan_bsp_cpu_high/mb_high/lib\libxil.a(WARP_ip_udp_eth.o)
 .debug_ranges  0x000001c8       0x30 ../../wlan_bsp_cpu_high/mb_high/lib\libxil.a(WARP_ip_udp_ip_udp.o)
 .debug_ranges  0x000001f8      0x168 ../../wlan_bsp_cpu_high/mb_high/lib\libxil.a(WARP_ip_udp_socket.o)
 .debug_ranges  0x00000360       0x30 ../../wlan_bsp_cpu_high/mb_high/lib\libxil.a(xaxicdma.o)
 .debug_ranges  0x00000390      0x158 ../../wlan_bsp_cpu_high/mb_high/lib\libxil.a(xaxicdma_bdring.o)
 .debug_ranges  0x000004e8       0x18 ../../wlan_bsp_cpu_high/mb_high/lib\libxil.a(xaxicdma_intr.o)
 .debug_ranges  0x00000500       0x70 ../../wlan_bsp_cpu_high/mb_high/lib\libxil.a(xaxidma.o)
 .debug_ranges  0x00000570       0xc8 ../../wlan_bsp_cpu_high/mb_high/lib\libxil.a(xaxidma_bdring.o)
 .debug_ranges  0x00000638       0x30 ../../wlan_bsp_cpu_high/mb_high/lib\libxil.a(xaxiethernet.o)
 .debug_ranges  0x00000668       0x30 ../../wlan_bsp_cpu_high/mb_high/lib\libxil.a(xintc.o)
 .debug_ranges  0x00000698       0x20 ../../wlan_bsp_cpu_high/mb_high/lib\libxil.a(xintc_l.o)
 .debug_ranges  0x000006b8       0x30 ../../wlan_bsp_cpu_high/mb_high/lib\libxil.a(xgpio_sinit.o)
 .debug_ranges  0x000006e8       0x30 ../../wlan_bsp_cpu_high/mb_high/lib\libxil.a(xtmrctr.o)
 .debug_ranges  0x00000718       0x30 ../../wlan_bsp_cpu_high/mb_high/lib\libxil.a(xuartlite_intr.o)
 .debug_ranges  0x00000748       0x30 ../../wlan_bsp_cpu_high/mb_high/lib\libxil.a(xuartlite_sinit.o)
 .debug_ranges  0x00000778       0x60 ../../wlan_bsp_cpu_high/mb_high/lib\libxil.a(w3_iic_eeprom.o)
 .debug_ranges  0x000007d8      0x110 c:/xilinx/14.4/ise_ds/edk/gnu/microblaze/nt64/bin/../lib/gcc/microblaze-xilinx-elf/4.6.2/bs/m/le\libgcc.a(_udivdi3.o)
 .debug_ranges  0x000008e8       0x28 c:/xilinx/14.4/ise_ds/edk/gnu/microblaze/nt64/bin/../lib/gcc/microblaze-xilinx-elf/4.6.2/bs/m/le\libgcc.a(_addsub_sf.o)
 .debug_ranges  0x00000910       0x40 c:/xilinx/14.4/ise_ds/edk/gnu/microblaze/nt64/bin/../lib/gcc/microblaze-xilinx-elf/4.6.2/bs/m/le\libgcc.a(_mul_sf.o)
 .debug_ranges  0x00000950       0x60 c:/xilinx/14.4/ise_ds/edk/gnu/microblaze/nt64/bin/../lib/gcc/microblaze-xilinx-elf/4.6.2/bs/m/le\libgcc.a(_div_sf.o)
 .debug_ranges  0x000009b0       0x38 c:/xilinx/14.4/ise_ds/edk/gnu/microblaze/nt64/bin/../lib/gcc/microblaze-xilinx-elf/4.6.2/bs/m/le\libgcc.a(_usi_to_sf.o)
 .debug_ranges  0x000009e8       0x38 c:/xilinx/14.4/ise_ds/edk/gnu/microblaze/nt64/bin/../lib/gcc/microblaze-xilinx-elf/4.6.2/bs/m/le\libgcc.a(_addsub_df.o)
 .debug_ranges  0x00000a20       0x68 c:/xilinx/14.4/ise_ds/edk/gnu/microblaze/nt64/bin/../lib/gcc/microblaze-xilinx-elf/4.6.2/bs/m/le\libgcc.a(_mul_df.o)
 .debug_ranges  0x00000a88       0x48 c:/xilinx/14.4/ise_ds/edk/gnu/microblaze/nt64/bin/../lib/gcc/microblaze-xilinx-elf/4.6.2/bs/m/le\libgcc.a(_usi_to_df.o)
 .debug_ranges  0x00000ad0       0x40 c:/xilinx/14.4/ise_ds/edk/gnu/microblaze/nt64/bin/../lib/gcc/microblaze-xilinx-elf/4.6.2/bs/m/le\libgcc.a(_muldi3.o)
 .debug_ranges  0x00000b10       0x28 c:/xilinx/14.4/ise_ds/edk/gnu/microblaze/nt64/bin/../lib/gcc/microblaze-xilinx-elf/4.6.2/bs/m/le\libgcc.a(_clzsi2.o)
 .debug_ranges  0x00000b38       0x18 c:/xilinx/14.4/ise_ds/edk/gnu/microblaze/nt64/bin/../lib/gcc/microblaze-xilinx-elf/4.6.2/bs/m/le\libgcc.a(_lshrdi3.o)
 .debug_ranges  0x00000b50       0x18 c:/xilinx/14.4/ise_ds/edk/gnu/microblaze/nt64/bin/../lib/gcc/microblaze-xilinx-elf/4.6.2/bs/m/le\libgcc.a(_ashldi3.o)
 .debug_ranges  0x00000b68      0x120 c:/xilinx/14.4/ise_ds/edk/gnu/microblaze/nt64/bin/../lib/gcc/microblaze-xilinx-elf/4.6.2/bs/m/le\libgcc.a(_umoddi3.o)
 .debug_ranges  0x00000c88       0x20 c:/xilinx/14.4/ise_ds/edk/gnu/microblaze/nt64/bin/../lib/gcc/microblaze-xilinx-elf/4.6.2/bs/m/le/crtn.o

.debug_frame    0x00000000     0x4b64
 .debug_frame   0x00000000      0x130 ./wlan_mac_high_framework/wlan_exp_common.o
 .debug_frame   0x00000130      0x3f8 ./wlan_mac_high_framework/wlan_exp_node.o
 .debug_frame   0x00000528      0x2c8 ./wlan_mac_high_framework/wlan_exp_transport.o
 .debug_frame   0x000007f0       0x28 ./wlan_mac_high_framework/wlan_exp_user.o
 .debug_frame   0x00000818       0xb0 ./wlan_mac_high_framework/wlan_mac_addr_filter.o
 .debug_frame   0x000008c8      0x1b4 ./wlan_mac_high_framework/wlan_mac_bss_info.o
 .debug_frame   0x00000a7c       0xd4 ./wlan_mac_high_framework/wlan_mac_dl_list.o
 .debug_frame   0x00000b50      0x168 ./wlan_mac_high_framework/wlan_mac_entries.o
 .debug_frame   0x00000cb8      0x188 ./wlan_mac_high_framework/wlan_mac_eth_util.o
 .debug_frame   0x00000e40      0x194 ./wlan_mac_high_framework/wlan_mac_event_log.o
 .debug_frame   0x00000fd4      0x4fc ./wlan_mac_high_framework/wlan_mac_high.o
 .debug_frame   0x000014d0      0x288 ./wlan_mac_high_framework/wlan_mac_ltg.o
 .debug_frame   0x00001758       0xf0 ./wlan_mac_high_framework/wlan_mac_packet_types.o
 .debug_frame   0x00001848      0x13c ./wlan_mac_high_framework/wlan_mac_queue.o
 .debug_frame   0x00001984       0xf4 ./wlan_mac_high_framework/wlan_mac_scan.o
 .debug_frame   0x00001a78      0x130 ./wlan_mac_high_framework/wlan_mac_schedule.o
 .debug_frame   0x00001ba8      0x270 ./wlan_mac_high_framework/wlan_mac_station_info.o
 .debug_frame   0x00001e18       0x94 ./wlan_mac_common/wlan_mac_common.o
 .debug_frame   0x00001eac       0xd8 ./wlan_mac_common/wlan_mac_mailbox_util.o
 .debug_frame   0x00001f84       0xec ./wlan_mac_common/wlan_mac_pkt_buf_util.o
 .debug_frame   0x00002070       0x50 ./wlan_mac_common/wlan_mac_sysmon_util.o
 .debug_frame   0x000020c0       0x7c ./wlan_mac_common/wlan_mac_time_util.o
 .debug_frame   0x0000213c       0xec ./wlan_mac_common/wlan_mac_userio_util.o
 .debug_frame   0x00002228       0x38 ./src/wlan_exp_node_ap.o
 .debug_frame   0x00002260      0x2d0 ./src/wlan_mac_ap.o
 .debug_frame   0x00002530      0x134 ./src/wlan_mac_ap_uart_menu.o
 .debug_frame   0x00002664      0x328 ./src/wlan_mac_chan_util.o
 .debug_frame   0x0000298c       0x78 ../../wlan_bsp_cpu_high/mb_high/lib\libxil.a(xil_printf.o)
 .debug_frame   0x00002a04       0x54 ../../wlan_bsp_cpu_high/mb_high/lib\libxil.a(microblaze_interrupt_handler.o)
 .debug_frame   0x00002a58       0x28 ../../wlan_bsp_cpu_high/mb_high/lib\libxil.a(outbyte.o)
 .debug_frame   0x00002a80       0x80 ../../wlan_bsp_cpu_high/mb_high/lib\libxil.a(xil_exception.o)
 .debug_frame   0x00002b00       0x70 ../../wlan_bsp_cpu_high/mb_high/lib\libxil.a(xil_io.o)
 .debug_frame   0x00002b70       0x60 ../../wlan_bsp_cpu_high/mb_high/lib\libxil.a(WARP_ip_udp_init.o)
 .debug_frame   0x00002bd0      0x2d0 ../../wlan_bsp_cpu_high/mb_high/lib\libxil.a(WARP_ip_udp_eth.o)
 .debug_frame   0x00002ea0      0x1a0 ../../wlan_bsp_cpu_high/mb_high/lib\libxil.a(WARP_ip_udp_ip_udp.o)
 .debug_frame   0x00003040      0x14c ../../wlan_bsp_cpu_high/mb_high/lib\libxil.a(WARP_ip_udp_socket.o)
 .debug_frame   0x0000318c       0xe0 ../../wlan_bsp_cpu_high/mb_high/lib\libxil.a(xaxicdma.o)
 .debug_frame   0x0000326c      0x184 ../../wlan_bsp_cpu_high/mb_high/lib\libxil.a(xaxicdma_bdring.o)
 .debug_frame   0x000033f0       0x5c ../../wlan_bsp_cpu_high/mb_high/lib\libxil.a(xaxicdma_intr.o)
 .debug_frame   0x0000344c       0x20 ../../wlan_bsp_cpu_high/mb_high/lib\libxil.a(xaxicdma_sinit.o)
 .debug_frame   0x0000346c       0xa8 ../../wlan_bsp_cpu_high/mb_high/lib\libxil.a(xaxidma.o)
 .debug_frame   0x00003514       0x84 ../../wlan_bsp_cpu_high/mb_high/lib\libxil.a(xaxidma_bd.o)
 .debug_frame   0x00003598      0x16c ../../wlan_bsp_cpu_high/mb_high/lib\libxil.a(xaxidma_bdring.o)
 .debug_frame   0x00003704       0x20 ../../wlan_bsp_cpu_high/mb_high/lib\libxil.a(xaxidma_sinit.o)
 .debug_frame   0x00003724      0x1bc ../../wlan_bsp_cpu_high/mb_high/lib\libxil.a(xaxiethernet.o)
 .debug_frame   0x000038e0       0x20 ../../wlan_bsp_cpu_high/mb_high/lib\libxil.a(xaxiethernet_sinit.o)
 .debug_frame   0x00003900      0x138 ../../wlan_bsp_cpu_high/mb_high/lib\libxil.a(xintc.o)
 .debug_frame   0x00003a38       0x78 ../../wlan_bsp_cpu_high/mb_high/lib\libxil.a(xintc_l.o)
 .debug_frame   0x00003ab0       0x88 ../../wlan_bsp_cpu_high/mb_high/lib\libxil.a(xgpio.o)
 .debug_frame   0x00003b38       0xc0 ../../wlan_bsp_cpu_high/mb_high/lib\libxil.a(xgpio_intr.o)
 .debug_frame   0x00003bf8       0x38 ../../wlan_bsp_cpu_high/mb_high/lib\libxil.a(xgpio_sinit.o)
 .debug_frame   0x00003c30       0xec ../../wlan_bsp_cpu_high/mb_high/lib\libxil.a(xtmrctr.o)
 .debug_frame   0x00003d1c       0x44 ../../wlan_bsp_cpu_high/mb_high/lib\libxil.a(xtmrctr_intr.o)
 .debug_frame   0x00003d60       0x44 ../../wlan_bsp_cpu_high/mb_high/lib\libxil.a(xtmrctr_options.o)
 .debug_frame   0x00003da4       0xc8 ../../wlan_bsp_cpu_high/mb_high/lib\libxil.a(xuartlite.o)
 .debug_frame   0x00003e6c       0x8c ../../wlan_bsp_cpu_high/mb_high/lib\libxil.a(xuartlite_intr.o)
 .debug_frame   0x00003ef8       0x30 ../../wlan_bsp_cpu_high/mb_high/lib\libxil.a(xuartlite_l.o)
 .debug_frame   0x00003f28       0x38 ../../wlan_bsp_cpu_high/mb_high/lib\libxil.a(xuartlite_sinit.o)
 .debug_frame   0x00003f60       0x40 ../../wlan_bsp_cpu_high/mb_high/lib\libxil.a(xuartlite_stats.o)
 .debug_frame   0x00003fa0      0x184 ../../wlan_bsp_cpu_high/mb_high/lib\libxil.a(xmbox.o)
 .debug_frame   0x00004124       0x20 ../../wlan_bsp_cpu_high/mb_high/lib\libxil.a(xmbox_sinit.o)
 .debug_frame   0x00004144       0xd4 ../../wlan_bsp_cpu_high/mb_high/lib\libxil.a(xmutex.o)
 .debug_frame   0x00004218       0x20 ../../wlan_bsp_cpu_high/mb_high/lib\libxil.a(xmutex_sinit.o)
 .debug_frame   0x00004238      0x174 ../../wlan_bsp_cpu_high/mb_high/lib\libxil.a(w3_iic_eeprom.o)
 .debug_frame   0x000043ac       0x2c ../../wlan_bsp_cpu_high/mb_high/lib\libxil.a(print.o)
 .debug_frame   0x000043d8       0x48 ../../wlan_bsp_cpu_high/mb_high/lib\libxil.a(xbasic_types.o)
 .debug_frame   0x00004420       0x38 ../../wlan_bsp_cpu_high/mb_high/lib\libxil.a(xil_assert.o)
 .debug_frame   0x00004458       0x2c ../../wlan_bsp_cpu_high/mb_high/lib\libxil.a(WARP_ip_udp_config.o)
 .debug_frame   0x00004484      0x154 ../../wlan_bsp_cpu_high/mb_high/lib\libxil.a(xaxicdma_bd.o)
 .debug_frame   0x000045d8       0x28 c:/xilinx/14.4/ise_ds/edk/gnu/microblaze/nt64/bin/../lib/gcc/microblaze-xilinx-elf/4.6.2/bs/m/le\libgcc.a(_fixunssfsi.o)
 .debug_frame   0x00004600       0x30 c:/xilinx/14.4/ise_ds/edk/gnu/microblaze/nt64/bin/../lib/gcc/microblaze-xilinx-elf/4.6.2/bs/m/le\libgcc.a(_floatundisf.o)
 .debug_frame   0x00004630       0x3c c:/xilinx/14.4/ise_ds/edk/gnu/microblaze/nt64/bin/../lib/gcc/microblaze-xilinx-elf/4.6.2/bs/m/le\libgcc.a(_udivdi3.o)
 .debug_frame   0x0000466c       0x58 c:/xilinx/14.4/ise_ds/edk/gnu/microblaze/nt64/bin/../lib/gcc/microblaze-xilinx-elf/4.6.2/bs/m/le\libgcc.a(_addsub_sf.o)
 .debug_frame   0x000046c4       0x28 c:/xilinx/14.4/ise_ds/edk/gnu/microblaze/nt64/bin/../lib/gcc/microblaze-xilinx-elf/4.6.2/bs/m/le\libgcc.a(_mul_sf.o)
 .debug_frame   0x000046ec       0x28 c:/xilinx/14.4/ise_ds/edk/gnu/microblaze/nt64/bin/../lib/gcc/microblaze-xilinx-elf/4.6.2/bs/m/le\libgcc.a(_div_sf.o)
 .debug_frame   0x00004714       0x28 c:/xilinx/14.4/ise_ds/edk/gnu/microblaze/nt64/bin/../lib/gcc/microblaze-xilinx-elf/4.6.2/bs/m/le\libgcc.a(_ge_sf.o)
 .debug_frame   0x0000473c       0x28 c:/xilinx/14.4/ise_ds/edk/gnu/microblaze/nt64/bin/../lib/gcc/microblaze-xilinx-elf/4.6.2/bs/m/le\libgcc.a(_sf_to_si.o)
 .debug_frame   0x00004764       0x28 c:/xilinx/14.4/ise_ds/edk/gnu/microblaze/nt64/bin/../lib/gcc/microblaze-xilinx-elf/4.6.2/bs/m/le\libgcc.a(_usi_to_sf.o)
 .debug_frame   0x0000478c       0x60 c:/xilinx/14.4/ise_ds/edk/gnu/microblaze/nt64/bin/../lib/gcc/microblaze-xilinx-elf/4.6.2/bs/m/le\libgcc.a(_addsub_df.o)
 .debug_frame   0x000047ec       0x40 c:/xilinx/14.4/ise_ds/edk/gnu/microblaze/nt64/bin/../lib/gcc/microblaze-xilinx-elf/4.6.2/bs/m/le\libgcc.a(_mul_df.o)
 .debug_frame   0x0000482c       0x28 c:/xilinx/14.4/ise_ds/edk/gnu/microblaze/nt64/bin/../lib/gcc/microblaze-xilinx-elf/4.6.2/bs/m/le\libgcc.a(_df_to_sf.o)
 .debug_frame   0x00004854       0x2c c:/xilinx/14.4/ise_ds/edk/gnu/microblaze/nt64/bin/../lib/gcc/microblaze-xilinx-elf/4.6.2/bs/m/le\libgcc.a(_usi_to_df.o)
 .debug_frame   0x00004880       0x20 c:/xilinx/14.4/ise_ds/edk/gnu/microblaze/nt64/bin/../lib/gcc/microblaze-xilinx-elf/4.6.2/bs/m/le\libgcc.a(_muldi3.o)
 .debug_frame   0x000048a0       0x20 c:/xilinx/14.4/ise_ds/edk/gnu/microblaze/nt64/bin/../lib/gcc/microblaze-xilinx-elf/4.6.2/bs/m/le\libgcc.a(_clzsi2.o)
 .debug_frame   0x000048c0       0x20 c:/xilinx/14.4/ise_ds/edk/gnu/microblaze/nt64/bin/../lib/gcc/microblaze-xilinx-elf/4.6.2/bs/m/le\libgcc.a(_pack_sf.o)
 .debug_frame   0x000048e0       0x20 c:/xilinx/14.4/ise_ds/edk/gnu/microblaze/nt64/bin/../lib/gcc/microblaze-xilinx-elf/4.6.2/bs/m/le\libgcc.a(_unpack_sf.o)
 .debug_frame   0x00004900       0x20 c:/xilinx/14.4/ise_ds/edk/gnu/microblaze/nt64/bin/../lib/gcc/microblaze-xilinx-elf/4.6.2/bs/m/le\libgcc.a(_fpcmp_parts_sf.o)
 .debug_frame   0x00004920       0x28 c:/xilinx/14.4/ise_ds/edk/gnu/microblaze/nt64/bin/../lib/gcc/microblaze-xilinx-elf/4.6.2/bs/m/le\libgcc.a(_make_sf.o)
 .debug_frame   0x00004948       0x30 c:/xilinx/14.4/ise_ds/edk/gnu/microblaze/nt64/bin/../lib/gcc/microblaze-xilinx-elf/4.6.2/bs/m/le\libgcc.a(_pack_df.o)
 .debug_frame   0x00004978       0x20 c:/xilinx/14.4/ise_ds/edk/gnu/microblaze/nt64/bin/../lib/gcc/microblaze-xilinx-elf/4.6.2/bs/m/le\libgcc.a(_unpack_df.o)
 .debug_frame   0x00004998       0x20 c:/xilinx/14.4/ise_ds/edk/gnu/microblaze/nt64/bin/../lib/gcc/microblaze-xilinx-elf/4.6.2/bs/m/le\libgcc.a(_lshrdi3.o)
 .debug_frame   0x000049b8       0x20 c:/xilinx/14.4/ise_ds/edk/gnu/microblaze/nt64/bin/../lib/gcc/microblaze-xilinx-elf/4.6.2/bs/m/le\libgcc.a(_ashldi3.o)
 .debug_frame   0x000049d8       0x20 ../../wlan_bsp_cpu_high/mb_high/lib\libxil.a(fstat.o)
 .debug_frame   0x000049f8       0x20 ../../wlan_bsp_cpu_high/mb_high/lib\libxil.a(isatty.o)
 .debug_frame   0x00004a18       0x28 ../../wlan_bsp_cpu_high/mb_high/lib\libxil.a(lseek.o)
 .debug_frame   0x00004a40       0x28 ../../wlan_bsp_cpu_high/mb_high/lib\libxil.a(sbrk.o)
 .debug_frame   0x00004a68       0x2c ../../wlan_bsp_cpu_high/mb_high/lib\libxil.a(write.o)
 .debug_frame   0x00004a94       0x2c ../../wlan_bsp_cpu_high/mb_high/lib\libxil.a(read.o)
 .debug_frame   0x00004ac0       0x20 ../../wlan_bsp_cpu_high/mb_high/lib\libxil.a(close.o)
 .debug_frame   0x00004ae0       0x20 ../../wlan_bsp_cpu_high/mb_high/lib\libxil.a(errno.o)
 .debug_frame   0x00004b00       0x28 ../../wlan_bsp_cpu_high/mb_high/lib\libxil.a(inbyte.o)
 .debug_frame   0x00004b28       0x3c c:/xilinx/14.4/ise_ds/edk/gnu/microblaze/nt64/bin/../lib/gcc/microblaze-xilinx-elf/4.6.2/bs/m/le\libgcc.a(_umoddi3.o)

.debug_loc      0x00000000    0x1e413
 .debug_loc     0x00000000      0x4f3 ./wlan_mac_high_framework/wlan_exp_common.o
 .debug_loc     0x000004f3     0x3e15 ./wlan_mac_high_framework/wlan_exp_node.o
 .debug_loc     0x00004308     0x1034 ./wlan_mac_high_framework/wlan_exp_transport.o
 .debug_loc     0x0000533c      0x152 ./wlan_mac_high_framework/wlan_exp_user.o
 .debug_loc     0x0000548e      0x2a2 ./wlan_mac_high_framework/wlan_mac_addr_filter.o
 .debug_loc     0x00005730      0xa22 ./wlan_mac_high_framework/wlan_mac_bss_info.o
 .debug_loc     0x00006152      0x3c5 ./wlan_mac_high_framework/wlan_mac_dl_list.o
 .debug_loc     0x00006517      0xa16 ./wlan_mac_high_framework/wlan_mac_entries.o
 .debug_loc     0x00006f2d      0xac6 ./wlan_mac_high_framework/wlan_mac_eth_util.o
 .debug_loc     0x000079f3      0x652 ./wlan_mac_high_framework/wlan_mac_event_log.o
 .debug_loc     0x00008045     0x129b ./wlan_mac_high_framework/wlan_mac_high.o
 .debug_loc     0x000092e0      0xd6c ./wlan_mac_high_framework/wlan_mac_ltg.o
 .debug_loc     0x0000a04c      0x623 ./wlan_mac_high_framework/wlan_mac_packet_types.o
 .debug_loc     0x0000a66f      0x379 ./wlan_mac_high_framework/wlan_mac_queue.o
 .debug_loc     0x0000a9e8       0xfc ./wlan_mac_high_framework/wlan_mac_scan.o
 .debug_loc     0x0000aae4      0x62f ./wlan_mac_high_framework/wlan_mac_schedule.o
 .debug_loc     0x0000b113     0x1028 ./wlan_mac_high_framework/wlan_mac_station_info.o
 .debug_loc     0x0000c13b       0x8f ./wlan_mac_common/wlan_mac_common.o
 .debug_loc     0x0000c1ca      0x24e ./wlan_mac_common/wlan_mac_mailbox_util.o
 .debug_loc     0x0000c418      0x2d5 ./wlan_mac_common/wlan_mac_pkt_buf_util.o
 .debug_loc     0x0000c6ed       0x60 ./wlan_mac_common/wlan_mac_sysmon_util.o
 .debug_loc     0x0000c74d       0xfc ./wlan_mac_common/wlan_mac_time_util.o
 .debug_loc     0x0000c849      0x2b2 ./wlan_mac_common/wlan_mac_userio_util.o
 .debug_loc     0x0000cafb      0x69c ./src/wlan_exp_node_ap.o
 .debug_loc     0x0000d197     0x1935 ./src/wlan_mac_ap.o
 .debug_loc     0x0000eacc      0x29e ./src/wlan_mac_ap_uart_menu.o
 .debug_loc     0x0000ed6a     0x114d ./src/wlan_mac_chan_util.o
 .debug_loc     0x0000feb7      0x4ef ../../wlan_bsp_cpu_high/mb_high/lib\libxil.a(xil_printf.o)
 .debug_loc     0x000103a6       0x21 ../../wlan_bsp_cpu_high/mb_high/lib\libxil.a(microblaze_interrupt_handler.o)
 .debug_loc     0x000103c7       0x3e ../../wlan_bsp_cpu_high/mb_high/lib\libxil.a(outbyte.o)
 .debug_loc     0x00010405       0x8f ../../wlan_bsp_cpu_high/mb_high/lib\libxil.a(xil_exception.o)
 .debug_loc     0x00010494      0x139 ../../wlan_bsp_cpu_high/mb_high/lib\libxil.a(xil_io.o)
 .debug_loc     0x000105cd       0x9d ../../wlan_bsp_cpu_high/mb_high/lib\libxil.a(WARP_ip_udp_init.o)
 .debug_loc     0x0001066a     0x1904 ../../wlan_bsp_cpu_high/mb_high/lib\libxil.a(WARP_ip_udp_eth.o)
 .debug_loc     0x00011f6e      0xb9a ../../wlan_bsp_cpu_high/mb_high/lib\libxil.a(WARP_ip_udp_ip_udp.o)
 .debug_loc     0x00012b08      0x88d ../../wlan_bsp_cpu_high/mb_high/lib\libxil.a(WARP_ip_udp_socket.o)
 .debug_loc     0x00013395      0x4b5 ../../wlan_bsp_cpu_high/mb_high/lib\libxil.a(xaxicdma.o)
 .debug_loc     0x0001384a      0xa02 ../../wlan_bsp_cpu_high/mb_high/lib\libxil.a(xaxicdma_bdring.o)
 .debug_loc     0x0001424c      0x14a ../../wlan_bsp_cpu_high/mb_high/lib\libxil.a(xaxicdma_intr.o)
 .debug_loc     0x00014396       0x3e ../../wlan_bsp_cpu_high/mb_high/lib\libxil.a(xaxicdma_sinit.o)
 .debug_loc     0x000143d4      0x559 ../../wlan_bsp_cpu_high/mb_high/lib\libxil.a(xaxidma.o)
 .debug_loc     0x0001492d      0x17d ../../wlan_bsp_cpu_high/mb_high/lib\libxil.a(xaxidma_bd.o)
 .debug_loc     0x00014aaa      0xc74 ../../wlan_bsp_cpu_high/mb_high/lib\libxil.a(xaxidma_bdring.o)
 .debug_loc     0x0001571e       0x69 ../../wlan_bsp_cpu_high/mb_high/lib\libxil.a(xaxidma_sinit.o)
 .debug_loc     0x00015787      0xda7 ../../wlan_bsp_cpu_high/mb_high/lib\libxil.a(xaxiethernet.o)
 .debug_loc     0x0001652e       0x69 ../../wlan_bsp_cpu_high/mb_high/lib\libxil.a(xaxiethernet_sinit.o)
 .debug_loc     0x00016597      0x885 ../../wlan_bsp_cpu_high/mb_high/lib\libxil.a(xintc.o)
 .debug_loc     0x00016e1c      0x1de ../../wlan_bsp_cpu_high/mb_high/lib\libxil.a(xintc_l.o)
 .debug_loc     0x00016ffa      0x2ec ../../wlan_bsp_cpu_high/mb_high/lib\libxil.a(xgpio.o)
 .debug_loc     0x000172e6      0x324 ../../wlan_bsp_cpu_high/mb_high/lib\libxil.a(xgpio_intr.o)
 .debug_loc     0x0001760a       0xf7 ../../wlan_bsp_cpu_high/mb_high/lib\libxil.a(xgpio_sinit.o)
 .debug_loc     0x00017701      0x59d ../../wlan_bsp_cpu_high/mb_high/lib\libxil.a(xtmrctr.o)
 .debug_loc     0x00017c9e      0x162 ../../wlan_bsp_cpu_high/mb_high/lib\libxil.a(xtmrctr_intr.o)
 .debug_loc     0x00017e00      0x201 ../../wlan_bsp_cpu_high/mb_high/lib\libxil.a(xtmrctr_options.o)
 .debug_loc     0x00018001      0x4c7 ../../wlan_bsp_cpu_high/mb_high/lib\libxil.a(xuartlite.o)
 .debug_loc     0x000184c8      0x273 ../../wlan_bsp_cpu_high/mb_high/lib\libxil.a(xuartlite_intr.o)
 .debug_loc     0x0001873b       0xf7 ../../wlan_bsp_cpu_high/mb_high/lib\libxil.a(xuartlite_sinit.o)
 .debug_loc     0x00018832       0xbb ../../wlan_bsp_cpu_high/mb_high/lib\libxil.a(xuartlite_stats.o)
 .debug_loc     0x000188ed      0xc1f ../../wlan_bsp_cpu_high/mb_high/lib\libxil.a(xmbox.o)
 .debug_loc     0x0001950c       0x3e ../../wlan_bsp_cpu_high/mb_high/lib\libxil.a(xmbox_sinit.o)
 .debug_loc     0x0001954a      0x680 ../../wlan_bsp_cpu_high/mb_high/lib\libxil.a(xmutex.o)
 .debug_loc     0x00019bca       0x3e ../../wlan_bsp_cpu_high/mb_high/lib\libxil.a(xmutex_sinit.o)
 .debug_loc     0x00019c08      0x9e9 ../../wlan_bsp_cpu_high/mb_high/lib\libxil.a(w3_iic_eeprom.o)
 .debug_loc     0x0001a5f1       0x3e ../../wlan_bsp_cpu_high/mb_high/lib\libxil.a(print.o)
 .debug_loc     0x0001a62f       0x46 ../../wlan_bsp_cpu_high/mb_high/lib\libxil.a(xbasic_types.o)
 .debug_loc     0x0001a675       0x46 ../../wlan_bsp_cpu_high/mb_high/lib\libxil.a(xil_assert.o)
 .debug_loc     0x0001a6bb       0xb8 ../../wlan_bsp_cpu_high/mb_high/lib\libxil.a(WARP_ip_udp_config.o)
 .debug_loc     0x0001a773       0xb1 ../../wlan_bsp_cpu_high/mb_high/lib\libxil.a(xaxicdma_bd.o)
 .debug_loc     0x0001a824       0x49 c:/xilinx/14.4/ise_ds/edk/gnu/microblaze/nt64/bin/../lib/gcc/microblaze-xilinx-elf/4.6.2/bs/m/le\libgcc.a(_fixunssfsi.o)
 .debug_loc     0x0001a86d       0x58 c:/xilinx/14.4/ise_ds/edk/gnu/microblaze/nt64/bin/../lib/gcc/microblaze-xilinx-elf/4.6.2/bs/m/le\libgcc.a(_floatundisf.o)
 .debug_loc     0x0001a8c5      0xf21 c:/xilinx/14.4/ise_ds/edk/gnu/microblaze/nt64/bin/../lib/gcc/microblaze-xilinx-elf/4.6.2/bs/m/le\libgcc.a(_udivdi3.o)
 .debug_loc     0x0001b7e6      0x3c3 c:/xilinx/14.4/ise_ds/edk/gnu/microblaze/nt64/bin/../lib/gcc/microblaze-xilinx-elf/4.6.2/bs/m/le\libgcc.a(_addsub_sf.o)
 .debug_loc     0x0001bba9      0x163 c:/xilinx/14.4/ise_ds/edk/gnu/microblaze/nt64/bin/../lib/gcc/microblaze-xilinx-elf/4.6.2/bs/m/le\libgcc.a(_mul_sf.o)
 .debug_loc     0x0001bd0c      0x1fd c:/xilinx/14.4/ise_ds/edk/gnu/microblaze/nt64/bin/../lib/gcc/microblaze-xilinx-elf/4.6.2/bs/m/le\libgcc.a(_div_sf.o)
 .debug_loc     0x0001bf09       0x5f c:/xilinx/14.4/ise_ds/edk/gnu/microblaze/nt64/bin/../lib/gcc/microblaze-xilinx-elf/4.6.2/bs/m/le\libgcc.a(_ge_sf.o)
 .debug_loc     0x0001bf68       0x60 c:/xilinx/14.4/ise_ds/edk/gnu/microblaze/nt64/bin/../lib/gcc/microblaze-xilinx-elf/4.6.2/bs/m/le\libgcc.a(_sf_to_si.o)
 .debug_loc     0x0001bfc8       0xe9 c:/xilinx/14.4/ise_ds/edk/gnu/microblaze/nt64/bin/../lib/gcc/microblaze-xilinx-elf/4.6.2/bs/m/le\libgcc.a(_usi_to_sf.o)
 .debug_loc     0x0001c0b1      0x495 c:/xilinx/14.4/ise_ds/edk/gnu/microblaze/nt64/bin/../lib/gcc/microblaze-xilinx-elf/4.6.2/bs/m/le\libgcc.a(_addsub_df.o)
 .debug_loc     0x0001c546      0x43f c:/xilinx/14.4/ise_ds/edk/gnu/microblaze/nt64/bin/../lib/gcc/microblaze-xilinx-elf/4.6.2/bs/m/le\libgcc.a(_mul_df.o)
 .debug_loc     0x0001c985       0x4b c:/xilinx/14.4/ise_ds/edk/gnu/microblaze/nt64/bin/../lib/gcc/microblaze-xilinx-elf/4.6.2/bs/m/le\libgcc.a(_df_to_sf.o)
 .debug_loc     0x0001c9d0       0xd8 c:/xilinx/14.4/ise_ds/edk/gnu/microblaze/nt64/bin/../lib/gcc/microblaze-xilinx-elf/4.6.2/bs/m/le\libgcc.a(_usi_to_df.o)
 .debug_loc     0x0001caa8       0xd2 c:/xilinx/14.4/ise_ds/edk/gnu/microblaze/nt64/bin/../lib/gcc/microblaze-xilinx-elf/4.6.2/bs/m/le\libgcc.a(_muldi3.o)
 .debug_loc     0x0001cb7a       0x9c c:/xilinx/14.4/ise_ds/edk/gnu/microblaze/nt64/bin/../lib/gcc/microblaze-xilinx-elf/4.6.2/bs/m/le\libgcc.a(_clzsi2.o)
 .debug_loc     0x0001cc16      0x2f7 c:/xilinx/14.4/ise_ds/edk/gnu/microblaze/nt64/bin/../lib/gcc/microblaze-xilinx-elf/4.6.2/bs/m/le\libgcc.a(_pack_sf.o)
 .debug_loc     0x0001cf0d       0x8e c:/xilinx/14.4/ise_ds/edk/gnu/microblaze/nt64/bin/../lib/gcc/microblaze-xilinx-elf/4.6.2/bs/m/le\libgcc.a(_unpack_sf.o)
 .debug_loc     0x0001cf9b       0xe6 c:/xilinx/14.4/ise_ds/edk/gnu/microblaze/nt64/bin/../lib/gcc/microblaze-xilinx-elf/4.6.2/bs/m/le\libgcc.a(_fpcmp_parts_sf.o)
 .debug_loc     0x0001d081       0x78 c:/xilinx/14.4/ise_ds/edk/gnu/microblaze/nt64/bin/../lib/gcc/microblaze-xilinx-elf/4.6.2/bs/m/le\libgcc.a(_make_sf.o)
 .debug_loc     0x0001d0f9      0x1e1 c:/xilinx/14.4/ise_ds/edk/gnu/microblaze/nt64/bin/../lib/gcc/microblaze-xilinx-elf/4.6.2/bs/m/le\libgcc.a(_pack_df.o)
 .debug_loc     0x0001d2da       0xb3 c:/xilinx/14.4/ise_ds/edk/gnu/microblaze/nt64/bin/../lib/gcc/microblaze-xilinx-elf/4.6.2/bs/m/le\libgcc.a(_unpack_df.o)
 .debug_loc     0x0001d38d       0x77 c:/xilinx/14.4/ise_ds/edk/gnu/microblaze/nt64/bin/../lib/gcc/microblaze-xilinx-elf/4.6.2/bs/m/le\libgcc.a(_lshrdi3.o)
 .debug_loc     0x0001d404       0x77 c:/xilinx/14.4/ise_ds/edk/gnu/microblaze/nt64/bin/../lib/gcc/microblaze-xilinx-elf/4.6.2/bs/m/le\libgcc.a(_ashldi3.o)
 .debug_loc     0x0001d47b       0x59 ../../wlan_bsp_cpu_high/mb_high/lib\libxil.a(lseek.o)
 .debug_loc     0x0001d4d4       0x51 ../../wlan_bsp_cpu_high/mb_high/lib\libxil.a(sbrk.o)
 .debug_loc     0x0001d525       0xa4 ../../wlan_bsp_cpu_high/mb_high/lib\libxil.a(write.o)
 .debug_loc     0x0001d5c9       0x8e ../../wlan_bsp_cpu_high/mb_high/lib\libxil.a(read.o)
 .debug_loc     0x0001d657       0x20 ../../wlan_bsp_cpu_high/mb_high/lib\libxil.a(inbyte.o)
 .debug_loc     0x0001d677      0xd9c c:/xilinx/14.4/ise_ds/edk/gnu/microblaze/nt64/bin/../lib/gcc/microblaze-xilinx-elf/4.6.2/bs/m/le\libgcc.a(_umoddi3.o)

.debug_macinfo  0x00000000   0x5b4866
 .debug_macinfo
                0x00000000    0x3502f ./wlan_mac_high_framework/wlan_exp_common.o
 .debug_macinfo
                0x0003502f    0x457b7 ./wlan_mac_high_framework/wlan_exp_node.o
 .debug_macinfo
                0x0007a7e6    0x37628 ./wlan_mac_high_framework/wlan_exp_transport.o
 .debug_macinfo
                0x000b1e0e    0x376b1 ./wlan_mac_high_framework/wlan_exp_user.o
 .debug_macinfo
                0x000e94bf    0x2a7af ./wlan_mac_high_framework/wlan_mac_addr_filter.o
 .debug_macinfo
                0x00113c6e    0x35485 ./wlan_mac_high_framework/wlan_mac_bss_info.o
 .debug_macinfo
                0x001490f3    0x2a12c ./wlan_mac_high_framework/wlan_mac_dl_list.o
 .debug_macinfo
                0x0017321f    0x2dcd4 ./wlan_mac_high_framework/wlan_mac_entries.o
 .debug_macinfo
                0x001a0ef3    0x5d9f1 ./wlan_mac_high_framework/wlan_mac_eth_util.o
 .debug_macinfo
                0x001fe8e4    0x2d5e5 ./wlan_mac_high_framework/wlan_mac_event_log.o
 .debug_macinfo
                0x0022bec9    0x64b3b ./wlan_mac_high_framework/wlan_mac_high.o
 .debug_macinfo
                0x00290a04    0x35f93 ./wlan_mac_high_framework/wlan_mac_ltg.o
 .debug_macinfo
                0x002c6997    0x2b972 ./wlan_mac_high_framework/wlan_mac_packet_types.o
 .debug_macinfo
                0x002f2309    0x41bfc ./wlan_mac_high_framework/wlan_mac_queue.o
 .debug_macinfo
                0x00333f05    0x35283 ./wlan_mac_high_framework/wlan_mac_scan.o
 .debug_macinfo
                0x00369188    0x32ed6 ./wlan_mac_high_framework/wlan_mac_schedule.o
 .debug_macinfo
                0x0039c05e    0x354e2 ./wlan_mac_high_framework/wlan_mac_station_info.o
 .debug_macinfo
                0x003d1540    0x1f030 ./wlan_mac_common/wlan_mac_common.o
 .debug_macinfo
                0x003f0570    0x3f7fa ./wlan_mac_common/wlan_mac_mailbox_util.o
 .debug_macinfo
                0x0042fd6a    0x32cbb ./wlan_mac_common/wlan_mac_pkt_buf_util.o
 .debug_macinfo
                0x00462a25     0xf58d ./wlan_mac_common/wlan_mac_sysmon_util.o
 .debug_macinfo
                0x00471fb2    0x2fb17 ./wlan_mac_common/wlan_mac_time_util.o
 .debug_macinfo
                0x004a1ac9     0xf989 ./wlan_mac_common/wlan_mac_userio_util.o
 .debug_macinfo
                0x004b1452    0x38a30 ./src/wlan_exp_node_ap.o
 .debug_macinfo
                0x004e9e82    0x473f9 ./src/wlan_mac_ap.o
 .debug_macinfo
                0x0053127b    0x38aa5 ./src/wlan_mac_ap_uart_menu.o
 .debug_macinfo
                0x00569d20    0x4ab46 ./src/wlan_mac_chan_util.o

.debug_str      0x00000000     0xae5c
 .debug_str     0x00000000      0x41d ./wlan_mac_high_framework/wlan_exp_common.o
                                0x4f0 (size before relaxing)
 .debug_str     0x0000041d     0x11d9 ./wlan_mac_high_framework/wlan_exp_node.o
                               0x1704 (size before relaxing)
 .debug_str     0x000015f6      0x3f2 ./wlan_mac_high_framework/wlan_exp_transport.o
                                0x9c4 (size before relaxing)
 .debug_str     0x000019e8       0xa3 ./wlan_mac_high_framework/wlan_exp_user.o
                                0x2dd (size before relaxing)
 .debug_str     0x00001a8b      0x1b0 ./wlan_mac_high_framework/wlan_mac_addr_filter.o
                                0x36b (size before relaxing)
 .debug_str     0x00001c3b      0x632 ./wlan_mac_high_framework/wlan_mac_bss_info.o
                                0xad1 (size before relaxing)
 .debug_str     0x0000226d      0x1a9 ./wlan_mac_high_framework/wlan_mac_dl_list.o
                                0x35f (size before relaxing)
 .debug_str     0x00002416      0x5f2 ./wlan_mac_high_framework/wlan_mac_entries.o
                                0xce9 (size before relaxing)
 .debug_str     0x00002a08      0x8b2 ./wlan_mac_high_framework/wlan_mac_eth_util.o
                               0x11f1 (size before relaxing)
 .debug_str     0x000032ba      0x3cf ./wlan_mac_high_framework/wlan_mac_event_log.o
                                0x6eb (size before relaxing)
 .debug_str     0x00003689      0xfe0 ./wlan_mac_high_framework/wlan_mac_high.o
                               0x1da2 (size before relaxing)
 .debug_str     0x00004669      0x450 ./wlan_mac_high_framework/wlan_mac_ltg.o
                                0x7e9 (size before relaxing)
 .debug_str     0x00004ab9      0x557 ./wlan_mac_high_framework/wlan_mac_packet_types.o
                                0x93f (size before relaxing)
 .debug_str     0x00005010      0x1ec ./wlan_mac_high_framework/wlan_mac_queue.o
                                0x688 (size before relaxing)
 .debug_str     0x000051fc      0x28f ./wlan_mac_high_framework/wlan_mac_scan.o
                                0x4db (size before relaxing)
 .debug_str     0x0000548b      0x36f ./wlan_mac_high_framework/wlan_mac_schedule.o
                                0x644 (size before relaxing)
 .debug_str     0x000057fa      0x39e ./wlan_mac_high_framework/wlan_mac_station_info.o
                                0xbb9 (size before relaxing)
 .debug_str     0x00005b98      0x12d ./wlan_mac_common/wlan_mac_common.o
                                0x2f9 (size before relaxing)
 .debug_str     0x00005cc5      0x1a4 ./wlan_mac_common/wlan_mac_mailbox_util.o
                                0x4d9 (size before relaxing)
 .debug_str     0x00005e69      0x198 ./wlan_mac_common/wlan_mac_pkt_buf_util.o
                                0x357 (size before relaxing)
 .debug_str     0x00006001       0xd9 ./wlan_mac_common/wlan_mac_sysmon_util.o
                                0x223 (size before relaxing)
 .debug_str     0x000060da      0x132 ./wlan_mac_common/wlan_mac_time_util.o
                                0x2e5 (size before relaxing)
 .debug_str     0x0000620c      0x1d2 ./wlan_mac_common/wlan_mac_userio_util.o
                                0x338 (size before relaxing)
 .debug_str     0x000063de      0x14b ./src/wlan_exp_node_ap.o
                                0x79a (size before relaxing)
 .debug_str     0x00006529      0x747 ./src/wlan_mac_ap.o
                               0x1701 (size before relaxing)
 .debug_str     0x00006c70      0x28d ./src/wlan_mac_ap_uart_menu.o
                                0x935 (size before relaxing)
 .debug_str     0x00006efd      0x5cf ./src/wlan_mac_chan_util.o
                                0xc97 (size before relaxing)
 .debug_str     0x000074cc      0x14b ../../wlan_bsp_cpu_high/mb_high/lib\libxil.a(xil_printf.o)
                                0x1f7 (size before relaxing)
 .debug_str     0x00007617      0x134 ../../wlan_bsp_cpu_high/mb_high/lib\libxil.a(microblaze_interrupt_handler.o)
                                0x1f7 (size before relaxing)
 .debug_str     0x0000774b       0x1a ../../wlan_bsp_cpu_high/mb_high/lib\libxil.a(microblaze_interrupts_g.o)
                                0x1ba (size before relaxing)
 .debug_str     0x00007765       0x12 ../../wlan_bsp_cpu_high/mb_high/lib\libxil.a(outbyte.o)
                                0x17c (size before relaxing)
 .debug_str     0x00007777       0xd1 ../../wlan_bsp_cpu_high/mb_high/lib\libxil.a(xil_exception.o)
                                0x291 (size before relaxing)
 .debug_str     0x00007848       0x78 ../../wlan_bsp_cpu_high/mb_high/lib\libxil.a(xil_io.o)
                                0x1f2 (size before relaxing)
 .debug_str     0x000078c0      0x1a8 ../../wlan_bsp_cpu_high/mb_high/lib\libxil.a(WARP_ip_udp_init.o)
                                0x426 (size before relaxing)
 .debug_str     0x00007a68      0x453 ../../wlan_bsp_cpu_high/mb_high/lib\libxil.a(WARP_ip_udp_eth.o)
                                0xbc4 (size before relaxing)
 .debug_str     0x00007ebb      0x255 ../../wlan_bsp_cpu_high/mb_high/lib\libxil.a(WARP_ip_udp_ip_udp.o)
                                0x6e0 (size before relaxing)
 .debug_str     0x00008110      0x158 ../../wlan_bsp_cpu_high/mb_high/lib\libxil.a(WARP_ip_udp_socket.o)
                                0x670 (size before relaxing)
 .debug_str     0x00008268      0x20a ../../wlan_bsp_cpu_high/mb_high/lib\libxil.a(xaxicdma.o)
                                0x4fc (size before relaxing)
 .debug_str     0x00008472      0x22a ../../wlan_bsp_cpu_high/mb_high/lib\libxil.a(xaxicdma_bdring.o)
                                0x5b1 (size before relaxing)
 .debug_str     0x0000869c       0x71 ../../wlan_bsp_cpu_high/mb_high/lib\libxil.a(xaxicdma_intr.o)
                                0x3e8 (size before relaxing)
 .debug_str     0x0000870d       0x3c ../../wlan_bsp_cpu_high/mb_high/lib\libxil.a(xaxicdma_sinit.o)
                                0x211 (size before relaxing)
 .debug_str     0x00008749      0x18c ../../wlan_bsp_cpu_high/mb_high/lib\libxil.a(xaxidma.o)
                                0x486 (size before relaxing)
 .debug_str     0x000088d5       0xa2 ../../wlan_bsp_cpu_high/mb_high/lib\libxil.a(xaxidma_bd.o)
                                0x259 (size before relaxing)
 .debug_str     0x00008977      0x17f ../../wlan_bsp_cpu_high/mb_high/lib\libxil.a(xaxidma_bdring.o)
                                0x4a9 (size before relaxing)
 .debug_str     0x00008af6       0x39 ../../wlan_bsp_cpu_high/mb_high/lib\libxil.a(xaxidma_sinit.o)
                                0x266 (size before relaxing)
 .debug_str     0x00008b2f      0x383 ../../wlan_bsp_cpu_high/mb_high/lib\libxil.a(xaxiethernet.o)
                                0x5b2 (size before relaxing)
 .debug_str     0x00008eb2       0x48 ../../wlan_bsp_cpu_high/mb_high/lib\libxil.a(xaxiethernet_sinit.o)
                                0x2d5 (size before relaxing)
 .debug_str     0x00008efa      0x1d3 ../../wlan_bsp_cpu_high/mb_high/lib\libxil.a(xintc.o)
                                0x396 (size before relaxing)
 .debug_str     0x000090cd        0xa ../../wlan_bsp_cpu_high/mb_high/lib\libxil.a(xintc_g.o)
                                0x21c (size before relaxing)
 .debug_str     0x000090d7       0xdb ../../wlan_bsp_cpu_high/mb_high/lib\libxil.a(xintc_l.o)
                                0x344 (size before relaxing)
 .debug_str     0x000091b2      0x136 ../../wlan_bsp_cpu_high/mb_high/lib\libxil.a(xgpio.o)
                                0x277 (size before relaxing)
 .debug_str     0x000092e8       0xbb ../../wlan_bsp_cpu_high/mb_high/lib\libxil.a(xgpio_intr.o)
                                0x289 (size before relaxing)
 .debug_str     0x000093a3       0x44 ../../wlan_bsp_cpu_high/mb_high/lib\libxil.a(xgpio_sinit.o)
                                0x241 (size before relaxing)
 .debug_str     0x000093e7      0x18b ../../wlan_bsp_cpu_high/mb_high/lib\libxil.a(xtmrctr.o)
                                0x34f (size before relaxing)
 .debug_str     0x00009572        0xc ../../wlan_bsp_cpu_high/mb_high/lib\libxil.a(xtmrctr_g.o)
                                0x1aa (size before relaxing)
 .debug_str     0x0000957e       0x4d ../../wlan_bsp_cpu_high/mb_high/lib\libxil.a(xtmrctr_intr.o)
                                0x269 (size before relaxing)
 .debug_str     0x000095cb        0xc ../../wlan_bsp_cpu_high/mb_high/lib\libxil.a(xtmrctr_l.o)
                                0x182 (size before relaxing)
 .debug_str     0x000095d7       0x4d ../../wlan_bsp_cpu_high/mb_high/lib\libxil.a(xtmrctr_options.o)
                                0x284 (size before relaxing)
 .debug_str     0x00009624      0x1ec ../../wlan_bsp_cpu_high/mb_high/lib\libxil.a(xuartlite.o)
                                0x470 (size before relaxing)
 .debug_str     0x00009810       0xc8 ../../wlan_bsp_cpu_high/mb_high/lib\libxil.a(xuartlite_intr.o)
                                0x3cf (size before relaxing)
 .debug_str     0x000098d8       0x34 ../../wlan_bsp_cpu_high/mb_high/lib\libxil.a(xuartlite_l.o)
                                0x1ad (size before relaxing)
 .debug_str     0x0000990c       0x54 ../../wlan_bsp_cpu_high/mb_high/lib\libxil.a(xuartlite_sinit.o)
                                0x3c1 (size before relaxing)
 .debug_str     0x00009960       0x43 ../../wlan_bsp_cpu_high/mb_high/lib\libxil.a(xuartlite_stats.o)
                                0x336 (size before relaxing)
 .debug_str     0x000099a3      0x1ec ../../wlan_bsp_cpu_high/mb_high/lib\libxil.a(xmbox.o)
                                0x397 (size before relaxing)
 .debug_str     0x00009b8f       0x33 ../../wlan_bsp_cpu_high/mb_high/lib\libxil.a(xmbox_sinit.o)
                                0x1f2 (size before relaxing)
 .debug_str     0x00009bc2      0x143 ../../wlan_bsp_cpu_high/mb_high/lib\libxil.a(xmutex.o)
                                0x2db (size before relaxing)
 .debug_str     0x00009d05       0x36 ../../wlan_bsp_cpu_high/mb_high/lib\libxil.a(xmutex_sinit.o)
                                0x1f3 (size before relaxing)
 .debug_str     0x00009d3b      0x297 ../../wlan_bsp_cpu_high/mb_high/lib\libxil.a(w3_iic_eeprom.o)
                                0x38b (size before relaxing)
 .debug_str     0x00009fd2       0x33 ../../wlan_bsp_cpu_high/mb_high/lib\libxil.a(print.o)
                                 0x83 (size before relaxing)
 .debug_str     0x0000a005      0x13e ../../wlan_bsp_cpu_high/mb_high/lib\libxil.a(xbasic_types.o)
                                0x1e8 (size before relaxing)
 .debug_str     0x0000a143       0x6a ../../wlan_bsp_cpu_high/mb_high/lib\libxil.a(xil_assert.o)
                                0x1f7 (size before relaxing)
 .debug_str     0x0000a1ad       0x95 ../../wlan_bsp_cpu_high/mb_high/lib\libxil.a(WARP_ip_udp_config.o)
                                0x5ec (size before relaxing)
 .debug_str     0x0000a242      0x1ad ../../wlan_bsp_cpu_high/mb_high/lib\libxil.a(xaxicdma_bd.o)
                                0x381 (size before relaxing)
 .debug_str     0x0000a3ef        0xd ../../wlan_bsp_cpu_high/mb_high/lib\libxil.a(xaxicdma_g.o)
                                0x1f0 (size before relaxing)
 .debug_str     0x0000a3fc        0xc ../../wlan_bsp_cpu_high/mb_high/lib\libxil.a(xaxidma_g.o)
                                0x240 (size before relaxing)
 .debug_str     0x0000a408       0x11 ../../wlan_bsp_cpu_high/mb_high/lib\libxil.a(xaxiethernet_g.o)
                                0x2aa (size before relaxing)
 .debug_str     0x0000a419        0xa ../../wlan_bsp_cpu_high/mb_high/lib\libxil.a(xgpio_g.o)
                                0x1ba (size before relaxing)
 .debug_str     0x0000a423        0xe ../../wlan_bsp_cpu_high/mb_high/lib\libxil.a(xuartlite_g.o)
                                0x1e5 (size before relaxing)
 .debug_str     0x0000a431        0xa ../../wlan_bsp_cpu_high/mb_high/lib\libxil.a(xmbox_g.o)
                                0x1ce (size before relaxing)
 .debug_str     0x0000a43b        0xb ../../wlan_bsp_cpu_high/mb_high/lib\libxil.a(xmutex_g.o)
                                0x1ce (size before relaxing)
 .debug_str     0x0000a446       0xb0 c:/xilinx/14.4/ise_ds/edk/gnu/microblaze/nt64/bin/../lib/gcc/microblaze-xilinx-elf/4.6.2/bs/m/le\libgcc.a(_fixunssfsi.o)
                                0x185 (size before relaxing)
 .debug_str     0x0000a4f6       0x1d c:/xilinx/14.4/ise_ds/edk/gnu/microblaze/nt64/bin/../lib/gcc/microblaze-xilinx-elf/4.6.2/bs/m/le\libgcc.a(_floatundisf.o)
                                0x18e (size before relaxing)
 .debug_str     0x0000a513       0x85 c:/xilinx/14.4/ise_ds/edk/gnu/microblaze/nt64/bin/../lib/gcc/microblaze-xilinx-elf/4.6.2/bs/m/le\libgcc.a(_udivdi3.o)
                                0x20a (size before relaxing)
 .debug_str     0x0000a598      0x14f c:/xilinx/14.4/ise_ds/edk/gnu/microblaze/nt64/bin/../lib/gcc/microblaze-xilinx-elf/4.6.2/bs/m/le\libgcc.a(_addsub_sf.o)
                                0x288 (size before relaxing)
 .debug_str     0x0000a6e7       0x1d c:/xilinx/14.4/ise_ds/edk/gnu/microblaze/nt64/bin/../lib/gcc/microblaze-xilinx-elf/4.6.2/bs/m/le\libgcc.a(_mul_sf.o)
                                0x23f (size before relaxing)
 .debug_str     0x0000a704       0x35 c:/xilinx/14.4/ise_ds/edk/gnu/microblaze/nt64/bin/../lib/gcc/microblaze-xilinx-elf/4.6.2/bs/m/le\libgcc.a(_div_sf.o)
                                0x24a (size before relaxing)
 .debug_str     0x0000a739       0x10 c:/xilinx/14.4/ise_ds/edk/gnu/microblaze/nt64/bin/../lib/gcc/microblaze-xilinx-elf/4.6.2/bs/m/le\libgcc.a(_ge_sf.o)
                                0x210 (size before relaxing)
 .debug_str     0x0000a749        0xa c:/xilinx/14.4/ise_ds/edk/gnu/microblaze/nt64/bin/../lib/gcc/microblaze-xilinx-elf/4.6.2/bs/m/le\libgcc.a(_sf_to_si.o)
                                0x218 (size before relaxing)
 .debug_str     0x00000000      0x1bf c:/xilinx/14.4/ise_ds/edk/gnu/microblaze/nt64/bin/../lib/gcc/microblaze-xilinx-elf/4.6.2/bs/m/le\libgcc.a(_thenan_sf.o)
 .debug_str     0x0000a753       0x2a c:/xilinx/14.4/ise_ds/edk/gnu/microblaze/nt64/bin/../lib/gcc/microblaze-xilinx-elf/4.6.2/bs/m/le\libgcc.a(_usi_to_sf.o)
                                0x1ff (size before relaxing)
 .debug_str     0x0000a77d       0x3c c:/xilinx/14.4/ise_ds/edk/gnu/microblaze/nt64/bin/../lib/gcc/microblaze-xilinx-elf/4.6.2/bs/m/le\libgcc.a(_addsub_df.o)
                                0x28e (size before relaxing)
 .debug_str     0x0000a7b9       0x33 c:/xilinx/14.4/ise_ds/edk/gnu/microblaze/nt64/bin/../lib/gcc/microblaze-xilinx-elf/4.6.2/bs/m/le\libgcc.a(_mul_df.o)
                                0x260 (size before relaxing)
 .debug_str     0x0000a7ec       0x14 c:/xilinx/14.4/ise_ds/edk/gnu/microblaze/nt64/bin/../lib/gcc/microblaze-xilinx-elf/4.6.2/bs/m/le\libgcc.a(_df_to_sf.o)
                                0x215 (size before relaxing)
 .debug_str     0x00000000      0x1bf c:/xilinx/14.4/ise_ds/edk/gnu/microblaze/nt64/bin/../lib/gcc/microblaze-xilinx-elf/4.6.2/bs/m/le\libgcc.a(_thenan_df.o)
 .debug_str     0x0000a800        0xe c:/xilinx/14.4/ise_ds/edk/gnu/microblaze/nt64/bin/../lib/gcc/microblaze-xilinx-elf/4.6.2/bs/m/le\libgcc.a(_usi_to_df.o)
                                0x1ff (size before relaxing)
 .debug_str     0x0000a80e        0x9 c:/xilinx/14.4/ise_ds/edk/gnu/microblaze/nt64/bin/../lib/gcc/microblaze-xilinx-elf/4.6.2/bs/m/le\libgcc.a(_muldi3.o)
                                0x1bf (size before relaxing)
 .debug_str     0x00000000      0x174 c:/xilinx/14.4/ise_ds/edk/gnu/microblaze/nt64/bin/../lib/gcc/microblaze-xilinx-elf/4.6.2/bs/m/le\libgcc.a(_clz.o)
 .debug_str     0x00000000      0x191 c:/xilinx/14.4/ise_ds/edk/gnu/microblaze/nt64/bin/../lib/gcc/microblaze-xilinx-elf/4.6.2/bs/m/le\libgcc.a(_clzsi2.o)
 .debug_str     0x0000a817       0x10 c:/xilinx/14.4/ise_ds/edk/gnu/microblaze/nt64/bin/../lib/gcc/microblaze-xilinx-elf/4.6.2/bs/m/le\libgcc.a(_pack_sf.o)
                                0x217 (size before relaxing)
 .debug_str     0x0000a827        0xb c:/xilinx/14.4/ise_ds/edk/gnu/microblaze/nt64/bin/../lib/gcc/microblaze-xilinx-elf/4.6.2/bs/m/le\libgcc.a(_unpack_sf.o)
                                0x1f9 (size before relaxing)
 .debug_str     0x0000a832       0x10 c:/xilinx/14.4/ise_ds/edk/gnu/microblaze/nt64/bin/../lib/gcc/microblaze-xilinx-elf/4.6.2/bs/m/le\libgcc.a(_fpcmp_parts_sf.o)
                                0x1e2 (size before relaxing)
 .debug_str     0x0000a842        0xa c:/xilinx/14.4/ise_ds/edk/gnu/microblaze/nt64/bin/../lib/gcc/microblaze-xilinx-elf/4.6.2/bs/m/le\libgcc.a(_make_sf.o)
                                0x1d5 (size before relaxing)
 .debug_str     0x0000a84c        0x9 c:/xilinx/14.4/ise_ds/edk/gnu/microblaze/nt64/bin/../lib/gcc/microblaze-xilinx-elf/4.6.2/bs/m/le\libgcc.a(_pack_df.o)
                                0x21d (size before relaxing)
 .debug_str     0x0000a855        0xb c:/xilinx/14.4/ise_ds/edk/gnu/microblaze/nt64/bin/../lib/gcc/microblaze-xilinx-elf/4.6.2/bs/m/le\libgcc.a(_unpack_df.o)
                                0x1ff (size before relaxing)
 .debug_str     0x0000a860       0x23 c:/xilinx/14.4/ise_ds/edk/gnu/microblaze/nt64/bin/../lib/gcc/microblaze-xilinx-elf/4.6.2/bs/m/le\libgcc.a(_lshrdi3.o)
                                0x1b1 (size before relaxing)
 .debug_str     0x0000a883        0xa c:/xilinx/14.4/ise_ds/edk/gnu/microblaze/nt64/bin/../lib/gcc/microblaze-xilinx-elf/4.6.2/bs/m/le\libgcc.a(_ashldi3.o)
                                0x1b1 (size before relaxing)
 .debug_str     0x0000a88d       0xfa ../../wlan_bsp_cpu_high/mb_high/lib\libxil.a(fstat.o)
                                0x1ec (size before relaxing)
 .debug_str     0x0000a987       0x3b ../../wlan_bsp_cpu_high/mb_high/lib\libxil.a(isatty.o)
                                 0x78 (size before relaxing)
 .debug_str     0x0000a9c2       0x40 ../../wlan_bsp_cpu_high/mb_high/lib\libxil.a(lseek.o)
                                0x11a (size before relaxing)
 .debug_str     0x0000aa02       0x57 ../../wlan_bsp_cpu_high/mb_high/lib\libxil.a(sbrk.o)
                                0x122 (size before relaxing)
 .debug_str     0x0000aa59       0x33 ../../wlan_bsp_cpu_high/mb_high/lib\libxil.a(write.o)
                                 0x82 (size before relaxing)
 .debug_str     0x0000aa8c       0x32 ../../wlan_bsp_cpu_high/mb_high/lib\libxil.a(read.o)
                                 0x80 (size before relaxing)
 .debug_str     0x0000aabe       0x33 ../../wlan_bsp_cpu_high/mb_high/lib\libxil.a(close.o)
                                 0x76 (size before relaxing)
 .debug_str     0x0000aaf1      0x351 ../../wlan_bsp_cpu_high/mb_high/lib\libxil.a(errno.o)
                                0x539 (size before relaxing)
 .debug_str     0x0000ae42       0x10 ../../wlan_bsp_cpu_high/mb_high/lib\libxil.a(inbyte.o)
                                0x17a (size before relaxing)
 .debug_str     0x0000ae52        0xa c:/xilinx/14.4/ise_ds/edk/gnu/microblaze/nt64/bin/../lib/gcc/microblaze-xilinx-elf/4.6.2/bs/m/le\libgcc.a(_umoddi3.o)
                                0x20a (size before relaxing)
